((lp1
(lp2
(ibasic
Map_Basic
p3
(dp4
S'move_consumption'
p5
I1
sS'kind'
p6
I0
sS'score'
p7
I0
sba(ibasic
Map_Basic
p8
(dp9
g5
I1
sg6
I0
sg7
I0
sba(ibasic
Map_Basic
p10
(dp11
g5
I2
sg6
I1
sg7
I0
sba(ibasic
Map_Basic
p12
(dp13
g5
I2
sg6
I1
sg7
I0
sba(ibasic
Map_Basic
p14
(dp15
g5
I2
sg6
I1
sg7
I0
sba(ibasic
Map_Basic
p16
(dp17
g5
I2
sg6
I1
sg7
I0
sba(ibasic
Map_Basic
p18
(dp19
g5
I2
sg6
I1
sg7
I0
sba(ibasic
Map_Basic
p20
(dp21
g5
I1
sg6
I0
sg7
I0
sba(ibasic
Map_Mirror
p22
(dp23
g5
I1
sg6
I6
sg7
I0
sS'out'
p24
(I7
I0
tp25
sba(ibasic
Map_Basic
p26
(dp27
g5
I1
sg6
I3
sg7
I0
sba(ibasic
Map_Basic
p28
(dp29
g5
I2
sg6
I1
sg7
I0
sba(ibasic
Map_Basic
p30
(dp31
g5
I1
sg6
I0
sg7
I0
sba(ibasic
Map_Basic
p32
(dp33
g5
I2
sg6
I1
sg7
I0
sba(ibasic
Map_Basic
p34
(dp35
g5
I2
sg6
I2
sg7
I0
sba(ibasic
Map_Basic
p36
(dp37
g5
I2
sg6
I2
sg7
I0
sba(ibasic
Map_Basic
p38
(dp39
g5
I2
sg6
I1
sg7
I0
sba(ibasic
Map_Basic
p40
(dp41
g5
I2
sg6
I2
sg7
I0
sba(ibasic
Map_Basic
p42
(dp43
g5
I2
sg6
I1
sg7
I0
sba(ibasic
Map_Basic
p44
(dp45
g5
I1
sg6
I0
sg7
I0
sba(ibasic
Map_Basic
p46
(dp47
g5
I2
sg6
I1
sg7
I0
sbaa(lp48
(ibasic
Map_Mirror
p49
(dp50
g5
I1
sg6
I6
sg7
I0
sg24
(I0
I3
tp51
sba(ibasic
Map_Basic
p52
(dp53
g5
I1
sg6
I0
sg7
I0
sba(ibasic
Map_Basic
p54
(dp55
g5
I2
sg6
I1
sg7
I0
sba(ibasic
Map_Basic
p56
(dp57
g5
I2
sg6
I1
sg7
I0
sba(ibasic
Map_Basic
p58
(dp59
g5
I2
sg6
I1
sg7
I0
sba(ibasic
Map_Basic
p60
(dp61
g5
I2
sg6
I1
sg7
I0
sba(ibasic
Map_Basic
p62
(dp63
g5
I2
sg6
I1
sg7
I0
sba(ibasic
Map_Basic
p64
(dp65
g5
I1
sg6
I0
sg7
I0
sba(ibasic
Map_Mirror
p66
(dp67
g5
I1
sg6
I6
sg7
I0
sg24
(I7
I1
tp68
sba(ibasic
Map_Basic
p69
(dp70
g5
I1
sg6
I3
sg7
I0
sba(ibasic
Map_Basic
p71
(dp72
g5
I2
sg6
I1
sg7
I0
sba(ibasic
Map_Basic
p73
(dp74
g5
I1
sg6
I0
sg7
I0
sba(ibasic
Map_Basic
p75
(dp76
g5
I2
sg6
I1
sg7
I0
sba(ibasic
Map_Basic
p77
(dp78
g5
I2
sg6
I2
sg7
I0
sba(ibasic
Map_Basic
p79
(dp80
g5
I2
sg6
I2
sg7
I0
sba(ibasic
Map_Basic
p81
(dp82
g5
I2
sg6
I1
sg7
I0
sba(ibasic
Map_Basic
p83
(dp84
g5
I2
sg6
I2
sg7
I0
sba(ibasic
Map_Basic
p85
(dp86
g5
I2
sg6
I1
sg7
I0
sba(ibasic
Map_Basic
p87
(dp88
g5
I1
sg6
I0
sg7
I0
sba(ibasic
Map_Basic
p89
(dp90
g5
I2
sg6
I1
sg7
I0
sbaa(lp91
(ibasic
Map_Basic
p92
(dp93
g5
I1
sg6
I0
sg7
I0
sba(ibasic
Map_Basic
p94
(dp95
g5
I1
sg6
I0
sg7
I0
sba(ibasic
Map_Basic
p96
(dp97
g5
I2
sg6
I1
sg7
I0
sba(ibasic
Map_Basic
p98
(dp99
g5
I2
sg6
I1
sg7
I0
sba(ibasic
Map_Basic
p100
(dp101
g5
I2
sg6
I1
sg7
I0
sba(ibasic
Map_Basic
p102
(dp103
g5
I2
sg6
I1
sg7
I0
sba(ibasic
Map_Basic
p104
(dp105
g5
I2
sg6
I1
sg7
I0
sba(ibasic
Map_Basic
p106
(dp107
g5
I1
sg6
I0
sg7
I0
sba(ibasic
Map_Mirror
p108
(dp109
g5
I1
sg6
I6
sg7
I0
sg24
(I7
I2
tp110
sba(ibasic
Map_Basic
p111
(dp112
g5
I1
sg6
I3
sg7
I0
sba(ibasic
Map_Basic
p113
(dp114
g5
I2
sg6
I1
sg7
I0
sba(ibasic
Map_Basic
p115
(dp116
g5
I1
sg6
I0
sg7
I0
sba(ibasic
Map_Basic
p117
(dp118
g5
I2
sg6
I1
sg7
I0
sba(ibasic
Map_Basic
p119
(dp120
g5
I2
sg6
I2
sg7
I0
sba(ibasic
Map_Basic
p121
(dp122
g5
I2
sg6
I2
sg7
I0
sba(ibasic
Map_Basic
p123
(dp124
g5
I2
sg6
I1
sg7
I0
sba(ibasic
Map_Basic
p125
(dp126
g5
I2
sg6
I2
sg7
I0
sba(ibasic
Map_Basic
p127
(dp128
g5
I2
sg6
I1
sg7
I0
sba(ibasic
Map_Basic
p129
(dp130
g5
I1
sg6
I0
sg7
I0
sba(ibasic
Map_Basic
p131
(dp132
g5
I2
sg6
I1
sg7
I0
sbaa(lp133
(ibasic
Map_Basic
p134
(dp135
g5
I1
sg6
I0
sg7
I0
sba(ibasic
Map_Basic
p136
(dp137
g5
I1
sg6
I0
sg7
I0
sba(ibasic
Map_Turret
p138
(dp139
g5
I1
sg6
I4
sg7
I2
sS'time'
p140
I0
sba(ibasic
Map_Basic
p141
(dp142
g5
I2
sg6
I1
sg7
I0
sba(ibasic
Map_Basic
p143
(dp144
g5
I2
sg6
I1
sg7
I0
sba(ibasic
Map_Basic
p145
(dp146
g5
I2
sg6
I1
sg7
I0
sba(ibasic
Map_Basic
p147
(dp148
g5
I2
sg6
I1
sg7
I0
sba(ibasic
Map_Basic
p149
(dp150
g5
I1
sg6
I0
sg7
I0
sba(ibasic
Map_Mirror
p151
(dp152
g5
I1
sg6
I6
sg7
I0
sg24
(I7
I3
tp153
sba(ibasic
Map_Basic
p154
(dp155
g5
I1
sg6
I3
sg7
I0
sba(ibasic
Map_Basic
p156
(dp157
g5
I2
sg6
I1
sg7
I0
sba(ibasic
Map_Basic
p158
(dp159
g5
I1
sg6
I0
sg7
I0
sba(ibasic
Map_Basic
p160
(dp161
g5
I2
sg6
I1
sg7
I0
sba(ibasic
Map_Basic
p162
(dp163
g5
I2
sg6
I2
sg7
I0
sba(ibasic
Map_Basic
p164
(dp165
g5
I2
sg6
I2
sg7
I0
sba(ibasic
Map_Basic
p166
(dp167
g5
I2
sg6
I1
sg7
I0
sba(ibasic
Map_Basic
p168
(dp169
g5
I2
sg6
I2
sg7
I0
sba(ibasic
Map_Basic
p170
(dp171
g5
I2
sg6
I1
sg7
I0
sba(ibasic
Map_Basic
p172
(dp173
g5
I1
sg6
I0
sg7
I0
sba(ibasic
Map_Basic
p174
(dp175
g5
I2
sg6
I1
sg7
I0
sbaa(lp176
(ibasic
Map_Temple
p177
(dp178
g5
I1
sg6
I5
sg7
I3
sS'up'
p179
I2
sg140
I0
sba(ibasic
Map_Turret
p180
(dp181
g5
I1
sg6
I4
sg7
I2
sg140
I0
sba(ibasic
Map_Basic
p182
(dp183
g5
I2
sg6
I1
sg7
I0
sba(ibasic
Map_Basic
p184
(dp185
g5
I2
sg6
I1
sg7
I0
sba(ibasic
Map_Basic
p186
(dp187
g5
I2
sg6
I1
sg7
I0
sba(ibasic
Map_Basic
p188
(dp189
g5
I2
sg6
I1
sg7
I0
sba(ibasic
Map_Basic
p190
(dp191
g5
I2
sg6
I1
sg7
I0
sba(ibasic
Map_Basic
p192
(dp193
g5
I1
sg6
I0
sg7
I0
sba(ibasic
Map_Mirror
p194
(dp195
g5
I1
sg6
I6
sg7
I0
sg24
(I7
I4
tp196
sba(ibasic
Map_Basic
p197
(dp198
g5
I1
sg6
I3
sg7
I0
sba(ibasic
Map_Basic
p199
(dp200
g5
I2
sg6
I1
sg7
I0
sba(ibasic
Map_Basic
p201
(dp202
g5
I1
sg6
I0
sg7
I0
sba(ibasic
Map_Basic
p203
(dp204
g5
I2
sg6
I1
sg7
I0
sba(ibasic
Map_Basic
p205
(dp206
g5
I2
sg6
I2
sg7
I0
sba(ibasic
Map_Basic
p207
(dp208
g5
I2
sg6
I2
sg7
I0
sba(ibasic
Map_Basic
p209
(dp210
g5
I2
sg6
I1
sg7
I0
sba(ibasic
Map_Basic
p211
(dp212
g5
I2
sg6
I2
sg7
I0
sba(ibasic
Map_Basic
p213
(dp214
g5
I2
sg6
I1
sg7
I0
sba(ibasic
Map_Basic
p215
(dp216
g5
I1
sg6
I0
sg7
I0
sba(ibasic
Map_Basic
p217
(dp218
g5
I2
sg6
I1
sg7
I0
sbaa(lp219
(ibasic
Map_Basic
p220
(dp221
g5
I1
sg6
I0
sg7
I0
sba(ibasic
Map_Basic
p222
(dp223
g5
I1
sg6
I0
sg7
I0
sba(ibasic
Map_Basic
p224
(dp225
g5
I2
sg6
I1
sg7
I0
sba(ibasic
Map_Basic
p226
(dp227
g5
I2
sg6
I1
sg7
I0
sba(ibasic
Map_Basic
p228
(dp229
g5
I2
sg6
I1
sg7
I0
sba(ibasic
Map_Basic
p230
(dp231
g5
I2
sg6
I1
sg7
I0
sba(ibasic
Map_Basic
p232
(dp233
g5
I2
sg6
I1
sg7
I0
sba(ibasic
Map_Basic
p234
(dp235
g5
I1
sg6
I0
sg7
I0
sba(ibasic
Map_Mirror
p236
(dp237
g5
I1
sg6
I6
sg7
I0
sg24
(I7
I5
tp238
sba(ibasic
Map_Basic
p239
(dp240
g5
I1
sg6
I3
sg7
I0
sba(ibasic
Map_Basic
p241
(dp242
g5
I2
sg6
I1
sg7
I0
sba(ibasic
Map_Basic
p243
(dp244
g5
I1
sg6
I0
sg7
I0
sba(ibasic
Map_Basic
p245
(dp246
g5
I2
sg6
I1
sg7
I0
sba(ibasic
Map_Basic
p247
(dp248
g5
I2
sg6
I2
sg7
I0
sba(ibasic
Map_Basic
p249
(dp250
g5
I2
sg6
I2
sg7
I0
sba(ibasic
Map_Basic
p251
(dp252
g5
I2
sg6
I1
sg7
I0
sba(ibasic
Map_Basic
p253
(dp254
g5
I2
sg6
I2
sg7
I0
sba(ibasic
Map_Basic
p255
(dp256
g5
I2
sg6
I1
sg7
I0
sba(ibasic
Map_Basic
p257
(dp258
g5
I1
sg6
I0
sg7
I0
sba(ibasic
Map_Basic
p259
(dp260
g5
I2
sg6
I1
sg7
I0
sbaa(lp261
(ibasic
Map_Basic
p262
(dp263
g5
I1
sg6
I0
sg7
I0
sba(ibasic
Map_Basic
p264
(dp265
g5
I1
sg6
I0
sg7
I0
sba(ibasic
Map_Basic
p266
(dp267
g5
I2
sg6
I1
sg7
I0
sba(ibasic
Map_Basic
p268
(dp269
g5
I2
sg6
I1
sg7
I0
sba(ibasic
Map_Basic
p270
(dp271
g5
I2
sg6
I1
sg7
I0
sba(ibasic
Map_Basic
p272
(dp273
g5
I2
sg6
I1
sg7
I0
sba(ibasic
Map_Basic
p274
(dp275
g5
I2
sg6
I1
sg7
I0
sba(ibasic
Map_Basic
p276
(dp277
g5
I1
sg6
I0
sg7
I0
sba(ibasic
Map_Mirror
p278
(dp279
g5
I1
sg6
I6
sg7
I0
sg24
(I7
I6
tp280
sba(ibasic
Map_Basic
p281
(dp282
g5
I1
sg6
I3
sg7
I0
sba(ibasic
Map_Basic
p283
(dp284
g5
I2
sg6
I1
sg7
I0
sba(ibasic
Map_Basic
p285
(dp286
g5
I1
sg6
I0
sg7
I0
sba(ibasic
Map_Basic
p287
(dp288
g5
I2
sg6
I1
sg7
I0
sba(ibasic
Map_Basic
p289
(dp290
g5
I2
sg6
I2
sg7
I0
sba(ibasic
Map_Basic
p291
(dp292
g5
I2
sg6
I2
sg7
I0
sba(ibasic
Map_Basic
p293
(dp294
g5
I2
sg6
I1
sg7
I0
sba(ibasic
Map_Basic
p295
(dp296
g5
I2
sg6
I2
sg7
I0
sba(ibasic
Map_Basic
p297
(dp298
g5
I2
sg6
I1
sg7
I0
sba(ibasic
Map_Basic
p299
(dp300
g5
I1
sg6
I0
sg7
I0
sba(ibasic
Map_Basic
p301
(dp302
g5
I2
sg6
I1
sg7
I0
sbaa(lp303
(ibasic
Map_Basic
p304
(dp305
g5
I1
sg6
I0
sg7
I0
sba(ibasic
Map_Basic
p306
(dp307
g5
I1
sg6
I0
sg7
I0
sba(ibasic
Map_Basic
p308
(dp309
g5
I2
sg6
I1
sg7
I0
sba(ibasic
Map_Basic
p310
(dp311
g5
I2
sg6
I1
sg7
I0
sba(ibasic
Map_Basic
p312
(dp313
g5
I2
sg6
I1
sg7
I0
sba(ibasic
Map_Basic
p314
(dp315
g5
I2
sg6
I1
sg7
I0
sba(ibasic
Map_Basic
p316
(dp317
g5
I2
sg6
I1
sg7
I0
sba(ibasic
Map_Basic
p318
(dp319
g5
I1
sg6
I0
sg7
I0
sba(ibasic
Map_Mirror
p320
(dp321
g5
I1
sg6
I6
sg7
I0
sg24
(I7
I7
tp322
sba(ibasic
Map_Basic
p323
(dp324
g5
I1
sg6
I3
sg7
I0
sba(ibasic
Map_Basic
p325
(dp326
g5
I2
sg6
I1
sg7
I0
sba(ibasic
Map_Basic
p327
(dp328
g5
I1
sg6
I0
sg7
I0
sba(ibasic
Map_Basic
p329
(dp330
g5
I2
sg6
I1
sg7
I0
sba(ibasic
Map_Basic
p331
(dp332
g5
I2
sg6
I2
sg7
I0
sba(ibasic
Map_Basic
p333
(dp334
g5
I2
sg6
I2
sg7
I0
sba(ibasic
Map_Basic
p335
(dp336
g5
I2
sg6
I1
sg7
I0
sba(ibasic
Map_Basic
p337
(dp338
g5
I2
sg6
I2
sg7
I0
sba(ibasic
Map_Basic
p339
(dp340
g5
I2
sg6
I1
sg7
I0
sba(ibasic
Map_Basic
p341
(dp342
g5
I1
sg6
I0
sg7
I0
sba(ibasic
Map_Basic
p343
(dp344
g5
I2
sg6
I1
sg7
I0
sbaa(lp345
(ibasic
Map_Basic
p346
(dp347
g5
I1
sg6
I0
sg7
I0
sba(ibasic
Map_Basic
p348
(dp349
g5
I1
sg6
I0
sg7
I0
sba(ibasic
Map_Basic
p350
(dp351
g5
I2
sg6
I1
sg7
I0
sba(ibasic
Map_Basic
p352
(dp353
g5
I2
sg6
I1
sg7
I0
sba(ibasic
Map_Basic
p354
(dp355
g5
I2
sg6
I1
sg7
I0
sba(ibasic
Map_Basic
p356
(dp357
g5
I2
sg6
I1
sg7
I0
sba(ibasic
Map_Basic
p358
(dp359
g5
I2
sg6
I1
sg7
I0
sba(ibasic
Map_Basic
p360
(dp361
g5
I1
sg6
I0
sg7
I0
sba(ibasic
Map_Mirror
p362
(dp363
g5
I1
sg6
I6
sg7
I0
sg24
(I8
I0
tp364
sba(ibasic
Map_Basic
p365
(dp366
g5
I1
sg6
I3
sg7
I0
sba(ibasic
Map_Basic
p367
(dp368
g5
I2
sg6
I1
sg7
I0
sba(ibasic
Map_Basic
p369
(dp370
g5
I1
sg6
I0
sg7
I0
sba(ibasic
Map_Basic
p371
(dp372
g5
I2
sg6
I1
sg7
I0
sba(ibasic
Map_Basic
p373
(dp374
g5
I2
sg6
I2
sg7
I0
sba(ibasic
Map_Basic
p375
(dp376
g5
I2
sg6
I2
sg7
I0
sba(ibasic
Map_Basic
p377
(dp378
g5
I2
sg6
I1
sg7
I0
sba(ibasic
Map_Basic
p379
(dp380
g5
I2
sg6
I2
sg7
I0
sba(ibasic
Map_Basic
p381
(dp382
g5
I2
sg6
I1
sg7
I0
sba(ibasic
Map_Basic
p383
(dp384
g5
I1
sg6
I0
sg7
I0
sba(ibasic
Map_Basic
p385
(dp386
g5
I2
sg6
I1
sg7
I0
sbaa(lp387
(ibasic
Map_Basic
p388
(dp389
g5
I1
sg6
I0
sg7
I0
sba(ibasic
Map_Turret
p390
(dp391
g5
I1
sg6
I4
sg7
I2
sg140
I0
sba(ibasic
Map_Basic
p392
(dp393
g5
I2
sg6
I1
sg7
I0
sba(ibasic
Map_Basic
p394
(dp395
g5
I2
sg6
I1
sg7
I0
sba(ibasic
Map_Basic
p396
(dp397
g5
I2
sg6
I1
sg7
I0
sba(ibasic
Map_Basic
p398
(dp399
g5
I2
sg6
I1
sg7
I0
sba(ibasic
Map_Basic
p400
(dp401
g5
I2
sg6
I1
sg7
I0
sba(ibasic
Map_Basic
p402
(dp403
g5
I1
sg6
I0
sg7
I0
sba(ibasic
Map_Mirror
p404
(dp405
g5
I1
sg6
I6
sg7
I0
sg24
(I8
I1
tp406
sba(ibasic
Map_Basic
p407
(dp408
g5
I1
sg6
I3
sg7
I0
sba(ibasic
Map_Basic
p409
(dp410
g5
I2
sg6
I1
sg7
I0
sba(ibasic
Map_Basic
p411
(dp412
g5
I1
sg6
I0
sg7
I0
sba(ibasic
Map_Basic
p413
(dp414
g5
I2
sg6
I1
sg7
I0
sba(ibasic
Map_Basic
p415
(dp416
g5
I2
sg6
I2
sg7
I0
sba(ibasic
Map_Basic
p417
(dp418
g5
I2
sg6
I2
sg7
I0
sba(ibasic
Map_Basic
p419
(dp420
g5
I2
sg6
I1
sg7
I0
sba(ibasic
Map_Basic
p421
(dp422
g5
I2
sg6
I2
sg7
I0
sba(ibasic
Map_Basic
p423
(dp424
g5
I2
sg6
I1
sg7
I0
sba(ibasic
Map_Basic
p425
(dp426
g5
I1
sg6
I0
sg7
I0
sba(ibasic
Map_Basic
p427
(dp428
g5
I2
sg6
I1
sg7
I0
sbaa(lp429
(ibasic
Map_Basic
p430
(dp431
g5
I1
sg6
I0
sg7
I0
sba(ibasic
Map_Turret
p432
(dp433
g5
I1
sg6
I4
sg7
I2
sg140
I0
sba(ibasic
Map_Basic
p434
(dp435
g5
I2
sg6
I1
sg7
I0
sba(ibasic
Map_Basic
p436
(dp437
g5
I2
sg6
I1
sg7
I0
sba(ibasic
Map_Basic
p438
(dp439
g5
I2
sg6
I1
sg7
I0
sba(ibasic
Map_Basic
p440
(dp441
g5
I2
sg6
I1
sg7
I0
sba(ibasic
Map_Basic
p442
(dp443
g5
I2
sg6
I1
sg7
I0
sba(ibasic
Map_Basic
p444
(dp445
g5
I1
sg6
I0
sg7
I0
sba(ibasic
Map_Mirror
p446
(dp447
g5
I1
sg6
I6
sg7
I0
sg24
(I8
I2
tp448
sba(ibasic
Map_Basic
p449
(dp450
g5
I1
sg6
I3
sg7
I0
sba(ibasic
Map_Basic
p451
(dp452
g5
I2
sg6
I1
sg7
I0
sba(ibasic
Map_Basic
p453
(dp454
g5
I1
sg6
I0
sg7
I0
sba(ibasic
Map_Basic
p455
(dp456
g5
I2
sg6
I1
sg7
I0
sba(ibasic
Map_Basic
p457
(dp458
g5
I2
sg6
I2
sg7
I0
sba(ibasic
Map_Basic
p459
(dp460
g5
I2
sg6
I2
sg7
I0
sba(ibasic
Map_Basic
p461
(dp462
g5
I2
sg6
I1
sg7
I0
sba(ibasic
Map_Basic
p463
(dp464
g5
I2
sg6
I2
sg7
I0
sba(ibasic
Map_Basic
p465
(dp466
g5
I2
sg6
I1
sg7
I0
sba(ibasic
Map_Basic
p467
(dp468
g5
I1
sg6
I0
sg7
I0
sba(ibasic
Map_Basic
p469
(dp470
g5
I2
sg6
I1
sg7
I0
sbaa(lp471
(ibasic
Map_Basic
p472
(dp473
g5
I1
sg6
I0
sg7
I0
sba(ibasic
Map_Turret
p474
(dp475
g5
I1
sg6
I4
sg7
I2
sg140
I0
sba(ibasic
Map_Basic
p476
(dp477
g5
I2
sg6
I1
sg7
I0
sba(ibasic
Map_Basic
p478
(dp479
g5
I2
sg6
I1
sg7
I0
sba(ibasic
Map_Basic
p480
(dp481
g5
I2
sg6
I1
sg7
I0
sba(ibasic
Map_Basic
p482
(dp483
g5
I2
sg6
I1
sg7
I0
sba(ibasic
Map_Basic
p484
(dp485
g5
I2
sg6
I1
sg7
I0
sba(ibasic
Map_Basic
p486
(dp487
g5
I1
sg6
I0
sg7
I0
sba(ibasic
Map_Mirror
p488
(dp489
g5
I1
sg6
I6
sg7
I0
sg24
(I7
I8
tp490
sba(ibasic
Map_Basic
p491
(dp492
g5
I1
sg6
I3
sg7
I0
sba(ibasic
Map_Basic
p493
(dp494
g5
I2
sg6
I1
sg7
I0
sba(ibasic
Map_Basic
p495
(dp496
g5
I1
sg6
I0
sg7
I0
sba(ibasic
Map_Basic
p497
(dp498
g5
I2
sg6
I1
sg7
I0
sba(ibasic
Map_Basic
p499
(dp500
g5
I2
sg6
I2
sg7
I0
sba(ibasic
Map_Basic
p501
(dp502
g5
I2
sg6
I2
sg7
I0
sba(ibasic
Map_Basic
p503
(dp504
g5
I2
sg6
I1
sg7
I0
sba(ibasic
Map_Basic
p505
(dp506
g5
I2
sg6
I2
sg7
I0
sba(ibasic
Map_Basic
p507
(dp508
g5
I2
sg6
I1
sg7
I0
sba(ibasic
Map_Basic
p509
(dp510
g5
I1
sg6
I0
sg7
I0
sba(ibasic
Map_Basic
p511
(dp512
g5
I2
sg6
I1
sg7
I0
sbaa(lp513
(ibasic
Map_Basic
p514
(dp515
g5
I1
sg6
I0
sg7
I0
sba(ibasic
Map_Turret
p516
(dp517
g5
I1
sg6
I4
sg7
I2
sg140
I0
sba(ibasic
Map_Basic
p518
(dp519
g5
I2
sg6
I1
sg7
I0
sba(ibasic
Map_Basic
p520
(dp521
g5
I2
sg6
I1
sg7
I0
sba(ibasic
Map_Basic
p522
(dp523
g5
I2
sg6
I1
sg7
I0
sba(ibasic
Map_Basic
p524
(dp525
g5
I2
sg6
I1
sg7
I0
sba(ibasic
Map_Basic
p526
(dp527
g5
I2
sg6
I1
sg7
I0
sba(ibasic
Map_Basic
p528
(dp529
g5
I1
sg6
I0
sg7
I0
sba(ibasic
Map_Mirror
p530
(dp531
g5
I1
sg6
I6
sg7
I0
sg24
(I8
I7
tp532
sba(ibasic
Map_Basic
p533
(dp534
g5
I1
sg6
I3
sg7
I0
sba(ibasic
Map_Basic
p535
(dp536
g5
I2
sg6
I1
sg7
I0
sba(ibasic
Map_Basic
p537
(dp538
g5
I1
sg6
I0
sg7
I0
sba(ibasic
Map_Basic
p539
(dp540
g5
I2
sg6
I1
sg7
I0
sba(ibasic
Map_Basic
p541
(dp542
g5
I2
sg6
I2
sg7
I0
sba(ibasic
Map_Basic
p543
(dp544
g5
I2
sg6
I2
sg7
I0
sba(ibasic
Map_Basic
p545
(dp546
g5
I2
sg6
I1
sg7
I0
sba(ibasic
Map_Basic
p547
(dp548
g5
I2
sg6
I2
sg7
I0
sba(ibasic
Map_Basic
p549
(dp550
g5
I2
sg6
I1
sg7
I0
sba(ibasic
Map_Basic
p551
(dp552
g5
I1
sg6
I0
sg7
I0
sba(ibasic
Map_Basic
p553
(dp554
g5
I2
sg6
I1
sg7
I0
sbaa(lp555
(ibasic
Map_Basic
p556
(dp557
g5
I1
sg6
I0
sg7
I0
sba(ibasic
Map_Turret
p558
(dp559
g5
I1
sg6
I4
sg7
I2
sg140
I0
sba(ibasic
Map_Basic
p560
(dp561
g5
I2
sg6
I1
sg7
I0
sba(ibasic
Map_Basic
p562
(dp563
g5
I2
sg6
I1
sg7
I0
sba(ibasic
Map_Basic
p564
(dp565
g5
I2
sg6
I1
sg7
I0
sba(ibasic
Map_Basic
p566
(dp567
g5
I2
sg6
I1
sg7
I0
sba(ibasic
Map_Basic
p568
(dp569
g5
I2
sg6
I1
sg7
I0
sba(ibasic
Map_Basic
p570
(dp571
g5
I1
sg6
I0
sg7
I0
sba(ibasic
Map_Mirror
p572
(dp573
g5
I1
sg6
I6
sg7
I0
sg24
(I5
I2
tp574
sba(ibasic
Map_Basic
p575
(dp576
g5
I1
sg6
I3
sg7
I0
sba(ibasic
Map_Basic
p577
(dp578
g5
I2
sg6
I1
sg7
I0
sba(ibasic
Map_Basic
p579
(dp580
g5
I1
sg6
I0
sg7
I0
sba(ibasic
Map_Basic
p581
(dp582
g5
I2
sg6
I1
sg7
I0
sba(ibasic
Map_Basic
p583
(dp584
g5
I2
sg6
I2
sg7
I0
sba(ibasic
Map_Basic
p585
(dp586
g5
I2
sg6
I2
sg7
I0
sba(ibasic
Map_Basic
p587
(dp588
g5
I2
sg6
I1
sg7
I0
sba(ibasic
Map_Basic
p589
(dp590
g5
I2
sg6
I2
sg7
I0
sba(ibasic
Map_Basic
p591
(dp592
g5
I2
sg6
I1
sg7
I0
sba(ibasic
Map_Basic
p593
(dp594
g5
I1
sg6
I0
sg7
I0
sba(ibasic
Map_Basic
p595
(dp596
g5
I2
sg6
I1
sg7
I0
sbaa(lp597
(ibasic
Map_Basic
p598
(dp599
g5
I1
sg6
I0
sg7
I0
sba(ibasic
Map_Turret
p600
(dp601
g5
I1
sg6
I4
sg7
I2
sg140
I0
sba(ibasic
Map_Basic
p602
(dp603
g5
I2
sg6
I1
sg7
I0
sba(ibasic
Map_Basic
p604
(dp605
g5
I2
sg6
I1
sg7
I0
sba(ibasic
Map_Basic
p606
(dp607
g5
I2
sg6
I1
sg7
I0
sba(ibasic
Map_Basic
p608
(dp609
g5
I2
sg6
I1
sg7
I0
sba(ibasic
Map_Basic
p610
(dp611
g5
I2
sg6
I1
sg7
I0
sba(ibasic
Map_Basic
p612
(dp613
g5
I1
sg6
I0
sg7
I0
sba(ibasic
Map_Mirror
p614
(dp615
g5
I1
sg6
I6
sg7
I0
sg24
(I10
I0
tp616
sba(ibasic
Map_Basic
p617
(dp618
g5
I1
sg6
I3
sg7
I0
sba(ibasic
Map_Basic
p619
(dp620
g5
I2
sg6
I1
sg7
I0
sba(ibasic
Map_Basic
p621
(dp622
g5
I1
sg6
I0
sg7
I0
sba(ibasic
Map_Basic
p623
(dp624
g5
I2
sg6
I1
sg7
I0
sba(ibasic
Map_Basic
p625
(dp626
g5
I2
sg6
I2
sg7
I0
sba(ibasic
Map_Basic
p627
(dp628
g5
I2
sg6
I2
sg7
I0
sba(ibasic
Map_Basic
p629
(dp630
g5
I2
sg6
I1
sg7
I0
sba(ibasic
Map_Basic
p631
(dp632
g5
I2
sg6
I2
sg7
I0
sba(ibasic
Map_Basic
p633
(dp634
g5
I2
sg6
I1
sg7
I0
sba(ibasic
Map_Basic
p635
(dp636
g5
I1
sg6
I0
sg7
I0
sba(ibasic
Map_Basic
p637
(dp638
g5
I2
sg6
I1
sg7
I0
sbaa(lp639
(ibasic
Map_Basic
p640
(dp641
g5
I1
sg6
I0
sg7
I0
sba(ibasic
Map_Turret
p642
(dp643
g5
I1
sg6
I4
sg7
I2
sg140
I0
sba(ibasic
Map_Basic
p644
(dp645
g5
I2
sg6
I1
sg7
I0
sba(ibasic
Map_Basic
p646
(dp647
g5
I2
sg6
I1
sg7
I0
sba(ibasic
Map_Basic
p648
(dp649
g5
I2
sg6
I1
sg7
I0
sba(ibasic
Map_Basic
p650
(dp651
g5
I2
sg6
I1
sg7
I0
sba(ibasic
Map_Basic
p652
(dp653
g5
I2
sg6
I1
sg7
I0
sba(ibasic
Map_Basic
p654
(dp655
g5
I1
sg6
I0
sg7
I0
sba(ibasic
Map_Mirror
p656
(dp657
g5
I1
sg6
I6
sg7
I0
sg24
(I10
I1
tp658
sba(ibasic
Map_Basic
p659
(dp660
g5
I1
sg6
I3
sg7
I0
sba(ibasic
Map_Basic
p661
(dp662
g5
I2
sg6
I1
sg7
I0
sba(ibasic
Map_Basic
p663
(dp664
g5
I1
sg6
I0
sg7
I0
sba(ibasic
Map_Basic
p665
(dp666
g5
I2
sg6
I1
sg7
I0
sba(ibasic
Map_Basic
p667
(dp668
g5
I2
sg6
I2
sg7
I0
sba(ibasic
Map_Basic
p669
(dp670
g5
I2
sg6
I2
sg7
I0
sba(ibasic
Map_Basic
p671
(dp672
g5
I2
sg6
I1
sg7
I0
sba(ibasic
Map_Basic
p673
(dp674
g5
I2
sg6
I2
sg7
I0
sba(ibasic
Map_Basic
p675
(dp676
g5
I2
sg6
I1
sg7
I0
sba(ibasic
Map_Basic
p677
(dp678
g5
I1
sg6
I0
sg7
I0
sba(ibasic
Map_Basic
p679
(dp680
g5
I2
sg6
I1
sg7
I0
sbaa(lp681
(ibasic
Map_Basic
p682
(dp683
g5
I1
sg6
I0
sg7
I0
sba(ibasic
Map_Turret
p684
(dp685
g5
I1
sg6
I4
sg7
I2
sg140
I0
sba(ibasic
Map_Basic
p686
(dp687
g5
I2
sg6
I1
sg7
I0
sba(ibasic
Map_Basic
p688
(dp689
g5
I2
sg6
I1
sg7
I0
sba(ibasic
Map_Basic
p690
(dp691
g5
I2
sg6
I1
sg7
I0
sba(ibasic
Map_Basic
p692
(dp693
g5
I2
sg6
I1
sg7
I0
sba(ibasic
Map_Basic
p694
(dp695
g5
I2
sg6
I1
sg7
I0
sba(ibasic
Map_Basic
p696
(dp697
g5
I1
sg6
I0
sg7
I0
sba(ibasic
Map_Basic
p698
(dp699
g5
I2
sg6
I1
sg7
I0
sba(ibasic
Map_Basic
p700
(dp701
g5
I1
sg6
I3
sg7
I0
sba(ibasic
Map_Basic
p702
(dp703
g5
I2
sg6
I1
sg7
I0
sba(ibasic
Map_Basic
p704
(dp705
g5
I1
sg6
I0
sg7
I0
sba(ibasic
Map_Basic
p706
(dp707
g5
I2
sg6
I1
sg7
I0
sba(ibasic
Map_Basic
p708
(dp709
g5
I2
sg6
I2
sg7
I0
sba(ibasic
Map_Basic
p710
(dp711
g5
I2
sg6
I2
sg7
I0
sba(ibasic
Map_Basic
p712
(dp713
g5
I2
sg6
I1
sg7
I0
sba(ibasic
Map_Basic
p714
(dp715
g5
I2
sg6
I2
sg7
I0
sba(ibasic
Map_Basic
p716
(dp717
g5
I2
sg6
I1
sg7
I0
sba(ibasic
Map_Basic
p718
(dp719
g5
I1
sg6
I0
sg7
I0
sba(ibasic
Map_Basic
p720
(dp721
g5
I2
sg6
I1
sg7
I0
sbaa(lp722
(ibasic
Map_Basic
p723
(dp724
g5
I1
sg6
I0
sg7
I0
sba(ibasic
Map_Turret
p725
(dp726
g5
I1
sg6
I4
sg7
I2
sg140
I0
sba(ibasic
Map_Basic
p727
(dp728
g5
I2
sg6
I1
sg7
I0
sba(ibasic
Map_Basic
p729
(dp730
g5
I2
sg6
I1
sg7
I0
sba(ibasic
Map_Basic
p731
(dp732
g5
I2
sg6
I1
sg7
I0
sba(ibasic
Map_Basic
p733
(dp734
g5
I2
sg6
I1
sg7
I0
sba(ibasic
Map_Basic
p735
(dp736
g5
I2
sg6
I1
sg7
I0
sba(ibasic
Map_Basic
p737
(dp738
g5
I1
sg6
I0
sg7
I0
sba(ibasic
Map_Basic
p739
(dp740
g5
I2
sg6
I1
sg7
I0
sba(ibasic
Map_Basic
p741
(dp742
g5
I1
sg6
I3
sg7
I0
sba(ibasic
Map_Basic
p743
(dp744
g5
I2
sg6
I1
sg7
I0
sba(ibasic
Map_Basic
p745
(dp746
g5
I1
sg6
I0
sg7
I0
sba(ibasic
Map_Basic
p747
(dp748
g5
I2
sg6
I1
sg7
I0
sba(ibasic
Map_Basic
p749
(dp750
g5
I2
sg6
I2
sg7
I0
sba(ibasic
Map_Basic
p751
(dp752
g5
I2
sg6
I2
sg7
I0
sba(ibasic
Map_Basic
p753
(dp754
g5
I2
sg6
I1
sg7
I0
sba(ibasic
Map_Basic
p755
(dp756
g5
I2
sg6
I2
sg7
I0
sba(ibasic
Map_Basic
p757
(dp758
g5
I2
sg6
I1
sg7
I0
sba(ibasic
Map_Basic
p759
(dp760
g5
I1
sg6
I0
sg7
I0
sba(ibasic
Map_Basic
p761
(dp762
g5
I2
sg6
I1
sg7
I0
sbaa(lp763
(ibasic
Map_Basic
p764
(dp765
g5
I1
sg6
I0
sg7
I0
sba(ibasic
Map_Turret
p766
(dp767
g5
I1
sg6
I4
sg7
I2
sg140
I0
sba(ibasic
Map_Basic
p768
(dp769
g5
I2
sg6
I1
sg7
I0
sba(ibasic
Map_Basic
p770
(dp771
g5
I2
sg6
I1
sg7
I0
sba(ibasic
Map_Basic
p772
(dp773
g5
I2
sg6
I1
sg7
I0
sba(ibasic
Map_Basic
p774
(dp775
g5
I2
sg6
I1
sg7
I0
sba(ibasic
Map_Basic
p776
(dp777
g5
I2
sg6
I1
sg7
I0
sba(ibasic
Map_Basic
p778
(dp779
g5
I1
sg6
I0
sg7
I0
sba(ibasic
Map_Basic
p780
(dp781
g5
I2
sg6
I1
sg7
I0
sba(ibasic
Map_Basic
p782
(dp783
g5
I1
sg6
I3
sg7
I0
sba(ibasic
Map_Basic
p784
(dp785
g5
I2
sg6
I1
sg7
I0
sba(ibasic
Map_Basic
p786
(dp787
g5
I1
sg6
I0
sg7
I0
sba(ibasic
Map_Basic
p788
(dp789
g5
I2
sg6
I1
sg7
I0
sba(ibasic
Map_Basic
p790
(dp791
g5
I2
sg6
I2
sg7
I0
sba(ibasic
Map_Basic
p792
(dp793
g5
I2
sg6
I2
sg7
I0
sba(ibasic
Map_Basic
p794
(dp795
g5
I2
sg6
I1
sg7
I0
sba(ibasic
Map_Basic
p796
(dp797
g5
I2
sg6
I2
sg7
I0
sba(ibasic
Map_Basic
p798
(dp799
g5
I2
sg6
I1
sg7
I0
sba(ibasic
Map_Basic
p800
(dp801
g5
I1
sg6
I0
sg7
I0
sba(ibasic
Map_Basic
p802
(dp803
g5
I2
sg6
I1
sg7
I0
sbaa(lp804
(ibasic
Map_Basic
p805
(dp806
g5
I1
sg6
I0
sg7
I0
sba(ibasic
Map_Turret
p807
(dp808
g5
I1
sg6
I4
sg7
I2
sg140
I0
sba(ibasic
Map_Basic
p809
(dp810
g5
I2
sg6
I1
sg7
I0
sba(ibasic
Map_Basic
p811
(dp812
g5
I2
sg6
I1
sg7
I0
sba(ibasic
Map_Basic
p813
(dp814
g5
I2
sg6
I1
sg7
I0
sba(ibasic
Map_Basic
p815
(dp816
g5
I2
sg6
I1
sg7
I0
sba(ibasic
Map_Basic
p817
(dp818
g5
I2
sg6
I1
sg7
I0
sba(ibasic
Map_Basic
p819
(dp820
g5
I1
sg6
I0
sg7
I0
sba(ibasic
Map_Basic
p821
(dp822
g5
I2
sg6
I1
sg7
I0
sba(ibasic
Map_Basic
p823
(dp824
g5
I1
sg6
I3
sg7
I0
sba(ibasic
Map_Basic
p825
(dp826
g5
I2
sg6
I1
sg7
I0
sba(ibasic
Map_Basic
p827
(dp828
g5
I1
sg6
I0
sg7
I0
sba(ibasic
Map_Basic
p829
(dp830
g5
I2
sg6
I1
sg7
I0
sba(ibasic
Map_Basic
p831
(dp832
g5
I2
sg6
I2
sg7
I0
sba(ibasic
Map_Basic
p833
(dp834
g5
I2
sg6
I2
sg7
I0
sba(ibasic
Map_Basic
p835
(dp836
g5
I2
sg6
I1
sg7
I0
sba(ibasic
Map_Basic
p837
(dp838
g5
I2
sg6
I2
sg7
I0
sba(ibasic
Map_Basic
p839
(dp840
g5
I2
sg6
I1
sg7
I0
sba(ibasic
Map_Basic
p841
(dp842
g5
I1
sg6
I0
sg7
I0
sba(ibasic
Map_Basic
p843
(dp844
g5
I2
sg6
I1
sg7
I0
sbaa(lp845
(lp846
(ibasic
Base_Unit
p847
(dp848
g6
I6
sS'strength'
p849
I17
sS'move_speed'
p850
I6
sS'life'
p851
I55
sg179
I0
sS'defence'
p852
I15
sg140
I0
sS'position'
p853
(I0
I0
tp854
sS'move_range'
p855
I5
sS'agility'
p856
I90
sS'attack_range'
p857
(lp858
I1
asba(ibasic
Base_Unit
p859
(dp860
g6
I2
sg849
I17
sg850
I3
sg851
I25
sg179
I0
sg852
I12
sg140
I0
sg853
(I1
I0
tp861
sg855
I6
sg856
I90
sg857
(lp862
I2
asba(ibasic
Base_Unit
p863
(dp864
g6
I3
sg849
I15
sg850
I2
sg851
I21
sg179
I0
sg852
I10
sg140
I0
sg853
(I0
I2
tp865
sg855
I8
sg856
I95
sg857
(lp866
I1
asbaa(lp867
(ibasic
Base_Unit
p868
(dp869
g6
I6
sg849
I17
sg850
I6
sg851
I55
sg179
I0
sg852
I15
sg140
I0
sg853
(I3
I3
tp870
sg855
I5
sg856
I90
sg857
g858
sba(ibasic
Base_Unit
p871
(dp872
g6
I2
sg849
I17
sg850
I3
sg851
I25
sg179
I0
sg852
I12
sg140
I0
sg853
(I3
I2
tp873
sg855
I6
sg856
I90
sg857
g862
sba(ibasic
Base_Unit
p874
(dp875
g6
I1
sg849
I17
sg850
I4
sg851
I25
sg179
I0
sg852
I13
sg140
I0
sg853
(I3
I1
tp876
sg855
I7
sg856
I90
sg857
(lp877
I1
asbaatp878
.