(lp1
((lp2
(lp3
(ibasic
Map_Basic
p4
(dp5
S'kind'
p6
I0
sS'move_consumption'
p7
I1
sS'score'
p8
I0
sba(ibasic
Map_Basic
p9
(dp10
g6
I0
sg7
I1
sg8
I0
sba(ibasic
Map_Basic
p11
(dp12
g6
I1
sg7
I2
sg8
I0
sba(ibasic
Map_Basic
p13
(dp14
g6
I1
sg7
I2
sg8
I0
sba(ibasic
Map_Basic
p15
(dp16
g6
I1
sg7
I2
sg8
I0
sba(ibasic
Map_Basic
p17
(dp18
g6
I1
sg7
I2
sg8
I0
sba(ibasic
Map_Basic
p19
(dp20
g6
I1
sg7
I2
sg8
I0
sba(ibasic
Map_Basic
p21
(dp22
g6
I0
sg7
I1
sg8
I0
sba(ibasic
Map_Mirror
p23
(dp24
g6
I6
sg7
I1
sg8
I0
sS'out'
p25
(I7
I0
tp26
sba(ibasic
Map_Basic
p27
(dp28
g6
I3
sg7
I1
sg8
I0
sba(ibasic
Map_Basic
p29
(dp30
g6
I1
sg7
I2
sg8
I0
sba(ibasic
Map_Basic
p31
(dp32
g6
I0
sg7
I1
sg8
I0
sba(ibasic
Map_Basic
p33
(dp34
g6
I1
sg7
I2
sg8
I0
sba(ibasic
Map_Basic
p35
(dp36
g6
I2
sg7
I2
sg8
I0
sba(ibasic
Map_Basic
p37
(dp38
g6
I2
sg7
I2
sg8
I0
sba(ibasic
Map_Basic
p39
(dp40
g6
I1
sg7
I2
sg8
I0
sba(ibasic
Map_Basic
p41
(dp42
g6
I2
sg7
I2
sg8
I0
sba(ibasic
Map_Basic
p43
(dp44
g6
I1
sg7
I2
sg8
I0
sba(ibasic
Map_Basic
p45
(dp46
g6
I0
sg7
I1
sg8
I0
sba(ibasic
Map_Basic
p47
(dp48
g6
I1
sg7
I2
sg8
I0
sbaa(lp49
(ibasic
Map_Mirror
p50
(dp51
g6
I6
sg7
I1
sg8
I0
sg25
(I0
I3
tp52
sba(ibasic
Map_Basic
p53
(dp54
g6
I0
sg7
I1
sg8
I0
sba(ibasic
Map_Basic
p55
(dp56
g6
I1
sg7
I2
sg8
I0
sba(ibasic
Map_Basic
p57
(dp58
g6
I1
sg7
I2
sg8
I0
sba(ibasic
Map_Basic
p59
(dp60
g6
I1
sg7
I2
sg8
I0
sba(ibasic
Map_Basic
p61
(dp62
g6
I1
sg7
I2
sg8
I0
sba(ibasic
Map_Basic
p63
(dp64
g6
I1
sg7
I2
sg8
I0
sba(ibasic
Map_Basic
p65
(dp66
g6
I0
sg7
I1
sg8
I0
sba(ibasic
Map_Mirror
p67
(dp68
g6
I6
sg7
I1
sg8
I0
sg25
(I7
I1
tp69
sba(ibasic
Map_Basic
p70
(dp71
g6
I3
sg7
I1
sg8
I0
sba(ibasic
Map_Basic
p72
(dp73
g6
I1
sg7
I2
sg8
I0
sba(ibasic
Map_Basic
p74
(dp75
g6
I0
sg7
I1
sg8
I0
sba(ibasic
Map_Basic
p76
(dp77
g6
I1
sg7
I2
sg8
I0
sba(ibasic
Map_Basic
p78
(dp79
g6
I2
sg7
I2
sg8
I0
sba(ibasic
Map_Basic
p80
(dp81
g6
I2
sg7
I2
sg8
I0
sba(ibasic
Map_Basic
p82
(dp83
g6
I1
sg7
I2
sg8
I0
sba(ibasic
Map_Basic
p84
(dp85
g6
I2
sg7
I2
sg8
I0
sba(ibasic
Map_Basic
p86
(dp87
g6
I1
sg7
I2
sg8
I0
sba(ibasic
Map_Basic
p88
(dp89
g6
I0
sg7
I1
sg8
I0
sba(ibasic
Map_Basic
p90
(dp91
g6
I1
sg7
I2
sg8
I0
sbaa(lp92
(ibasic
Map_Basic
p93
(dp94
g6
I0
sg7
I1
sg8
I0
sba(ibasic
Map_Basic
p95
(dp96
g6
I0
sg7
I1
sg8
I0
sba(ibasic
Map_Basic
p97
(dp98
g6
I1
sg7
I2
sg8
I0
sba(ibasic
Map_Basic
p99
(dp100
g6
I1
sg7
I2
sg8
I0
sba(ibasic
Map_Basic
p101
(dp102
g6
I1
sg7
I2
sg8
I0
sba(ibasic
Map_Basic
p103
(dp104
g6
I1
sg7
I2
sg8
I0
sba(ibasic
Map_Basic
p105
(dp106
g6
I1
sg7
I2
sg8
I0
sba(ibasic
Map_Basic
p107
(dp108
g6
I0
sg7
I1
sg8
I0
sba(ibasic
Map_Mirror
p109
(dp110
g6
I6
sg7
I1
sg8
I0
sg25
(I7
I2
tp111
sba(ibasic
Map_Basic
p112
(dp113
g6
I3
sg7
I1
sg8
I0
sba(ibasic
Map_Basic
p114
(dp115
g6
I1
sg7
I2
sg8
I0
sba(ibasic
Map_Basic
p116
(dp117
g6
I0
sg7
I1
sg8
I0
sba(ibasic
Map_Basic
p118
(dp119
g6
I1
sg7
I2
sg8
I0
sba(ibasic
Map_Basic
p120
(dp121
g6
I2
sg7
I2
sg8
I0
sba(ibasic
Map_Basic
p122
(dp123
g6
I2
sg7
I2
sg8
I0
sba(ibasic
Map_Basic
p124
(dp125
g6
I1
sg7
I2
sg8
I0
sba(ibasic
Map_Basic
p126
(dp127
g6
I2
sg7
I2
sg8
I0
sba(ibasic
Map_Basic
p128
(dp129
g6
I1
sg7
I2
sg8
I0
sba(ibasic
Map_Basic
p130
(dp131
g6
I0
sg7
I1
sg8
I0
sba(ibasic
Map_Basic
p132
(dp133
g6
I1
sg7
I2
sg8
I0
sbaa(lp134
(ibasic
Map_Basic
p135
(dp136
g6
I0
sg7
I1
sg8
I0
sba(ibasic
Map_Basic
p137
(dp138
g6
I0
sg7
I1
sg8
I0
sba(ibasic
Map_Turret
p139
(dp140
g6
I4
sg7
I1
sg8
I2
sS'time'
p141
I0
sba(ibasic
Map_Basic
p142
(dp143
g6
I1
sg7
I2
sg8
I0
sba(ibasic
Map_Basic
p144
(dp145
g6
I1
sg7
I2
sg8
I0
sba(ibasic
Map_Basic
p146
(dp147
g6
I1
sg7
I2
sg8
I0
sba(ibasic
Map_Basic
p148
(dp149
g6
I1
sg7
I2
sg8
I0
sba(ibasic
Map_Basic
p150
(dp151
g6
I0
sg7
I1
sg8
I0
sba(ibasic
Map_Mirror
p152
(dp153
g6
I6
sg7
I1
sg8
I0
sg25
(I7
I3
tp154
sba(ibasic
Map_Basic
p155
(dp156
g6
I3
sg7
I1
sg8
I0
sba(ibasic
Map_Basic
p157
(dp158
g6
I1
sg7
I2
sg8
I0
sba(ibasic
Map_Basic
p159
(dp160
g6
I0
sg7
I1
sg8
I0
sba(ibasic
Map_Basic
p161
(dp162
g6
I1
sg7
I2
sg8
I0
sba(ibasic
Map_Basic
p163
(dp164
g6
I2
sg7
I2
sg8
I0
sba(ibasic
Map_Basic
p165
(dp166
g6
I2
sg7
I2
sg8
I0
sba(ibasic
Map_Basic
p167
(dp168
g6
I1
sg7
I2
sg8
I0
sba(ibasic
Map_Basic
p169
(dp170
g6
I2
sg7
I2
sg8
I0
sba(ibasic
Map_Basic
p171
(dp172
g6
I1
sg7
I2
sg8
I0
sba(ibasic
Map_Basic
p173
(dp174
g6
I0
sg7
I1
sg8
I0
sba(ibasic
Map_Basic
p175
(dp176
g6
I1
sg7
I2
sg8
I0
sbaa(lp177
(ibasic
Map_Temple
p178
(dp179
S'up'
p180
I2
sg6
I5
sg7
I1
sg8
I3
sg141
I0
sba(ibasic
Map_Turret
p181
(dp182
g6
I4
sg7
I1
sg8
I2
sg141
I0
sba(ibasic
Map_Basic
p183
(dp184
g6
I1
sg7
I2
sg8
I0
sba(ibasic
Map_Basic
p185
(dp186
g6
I1
sg7
I2
sg8
I0
sba(ibasic
Map_Basic
p187
(dp188
g6
I1
sg7
I2
sg8
I0
sba(ibasic
Map_Basic
p189
(dp190
g6
I1
sg7
I2
sg8
I0
sba(ibasic
Map_Basic
p191
(dp192
g6
I1
sg7
I2
sg8
I0
sba(ibasic
Map_Basic
p193
(dp194
g6
I0
sg7
I1
sg8
I0
sba(ibasic
Map_Mirror
p195
(dp196
g6
I6
sg7
I1
sg8
I0
sg25
(I7
I4
tp197
sba(ibasic
Map_Basic
p198
(dp199
g6
I3
sg7
I1
sg8
I0
sba(ibasic
Map_Basic
p200
(dp201
g6
I1
sg7
I2
sg8
I0
sba(ibasic
Map_Basic
p202
(dp203
g6
I0
sg7
I1
sg8
I0
sba(ibasic
Map_Basic
p204
(dp205
g6
I1
sg7
I2
sg8
I0
sba(ibasic
Map_Basic
p206
(dp207
g6
I2
sg7
I2
sg8
I0
sba(ibasic
Map_Basic
p208
(dp209
g6
I2
sg7
I2
sg8
I0
sba(ibasic
Map_Basic
p210
(dp211
g6
I1
sg7
I2
sg8
I0
sba(ibasic
Map_Basic
p212
(dp213
g6
I2
sg7
I2
sg8
I0
sba(ibasic
Map_Basic
p214
(dp215
g6
I1
sg7
I2
sg8
I0
sba(ibasic
Map_Basic
p216
(dp217
g6
I0
sg7
I1
sg8
I0
sba(ibasic
Map_Basic
p218
(dp219
g6
I1
sg7
I2
sg8
I0
sbaa(lp220
(ibasic
Map_Basic
p221
(dp222
g6
I0
sg7
I1
sg8
I0
sba(ibasic
Map_Basic
p223
(dp224
g6
I0
sg7
I1
sg8
I0
sba(ibasic
Map_Basic
p225
(dp226
g6
I1
sg7
I2
sg8
I0
sba(ibasic
Map_Basic
p227
(dp228
g6
I1
sg7
I2
sg8
I0
sba(ibasic
Map_Basic
p229
(dp230
g6
I1
sg7
I2
sg8
I0
sba(ibasic
Map_Basic
p231
(dp232
g6
I1
sg7
I2
sg8
I0
sba(ibasic
Map_Basic
p233
(dp234
g6
I1
sg7
I2
sg8
I0
sba(ibasic
Map_Basic
p235
(dp236
g6
I0
sg7
I1
sg8
I0
sba(ibasic
Map_Mirror
p237
(dp238
g6
I6
sg7
I1
sg8
I0
sg25
(I7
I5
tp239
sba(ibasic
Map_Basic
p240
(dp241
g6
I3
sg7
I1
sg8
I0
sba(ibasic
Map_Basic
p242
(dp243
g6
I1
sg7
I2
sg8
I0
sba(ibasic
Map_Basic
p244
(dp245
g6
I0
sg7
I1
sg8
I0
sba(ibasic
Map_Basic
p246
(dp247
g6
I1
sg7
I2
sg8
I0
sba(ibasic
Map_Basic
p248
(dp249
g6
I2
sg7
I2
sg8
I0
sba(ibasic
Map_Basic
p250
(dp251
g6
I2
sg7
I2
sg8
I0
sba(ibasic
Map_Basic
p252
(dp253
g6
I1
sg7
I2
sg8
I0
sba(ibasic
Map_Basic
p254
(dp255
g6
I2
sg7
I2
sg8
I0
sba(ibasic
Map_Basic
p256
(dp257
g6
I1
sg7
I2
sg8
I0
sba(ibasic
Map_Basic
p258
(dp259
g6
I0
sg7
I1
sg8
I0
sba(ibasic
Map_Basic
p260
(dp261
g6
I1
sg7
I2
sg8
I0
sbaa(lp262
(ibasic
Map_Basic
p263
(dp264
g6
I0
sg7
I1
sg8
I0
sba(ibasic
Map_Basic
p265
(dp266
g6
I0
sg7
I1
sg8
I0
sba(ibasic
Map_Basic
p267
(dp268
g6
I1
sg7
I2
sg8
I0
sba(ibasic
Map_Basic
p269
(dp270
g6
I1
sg7
I2
sg8
I0
sba(ibasic
Map_Basic
p271
(dp272
g6
I1
sg7
I2
sg8
I0
sba(ibasic
Map_Basic
p273
(dp274
g6
I1
sg7
I2
sg8
I0
sba(ibasic
Map_Basic
p275
(dp276
g6
I1
sg7
I2
sg8
I0
sba(ibasic
Map_Basic
p277
(dp278
g6
I0
sg7
I1
sg8
I0
sba(ibasic
Map_Mirror
p279
(dp280
g6
I6
sg7
I1
sg8
I0
sg25
(I7
I6
tp281
sba(ibasic
Map_Basic
p282
(dp283
g6
I3
sg7
I1
sg8
I0
sba(ibasic
Map_Basic
p284
(dp285
g6
I1
sg7
I2
sg8
I0
sba(ibasic
Map_Basic
p286
(dp287
g6
I0
sg7
I1
sg8
I0
sba(ibasic
Map_Basic
p288
(dp289
g6
I1
sg7
I2
sg8
I0
sba(ibasic
Map_Basic
p290
(dp291
g6
I2
sg7
I2
sg8
I0
sba(ibasic
Map_Basic
p292
(dp293
g6
I2
sg7
I2
sg8
I0
sba(ibasic
Map_Basic
p294
(dp295
g6
I1
sg7
I2
sg8
I0
sba(ibasic
Map_Basic
p296
(dp297
g6
I2
sg7
I2
sg8
I0
sba(ibasic
Map_Basic
p298
(dp299
g6
I1
sg7
I2
sg8
I0
sba(ibasic
Map_Basic
p300
(dp301
g6
I0
sg7
I1
sg8
I0
sba(ibasic
Map_Basic
p302
(dp303
g6
I1
sg7
I2
sg8
I0
sbaa(lp304
(ibasic
Map_Basic
p305
(dp306
g6
I0
sg7
I1
sg8
I0
sba(ibasic
Map_Basic
p307
(dp308
g6
I0
sg7
I1
sg8
I0
sba(ibasic
Map_Basic
p309
(dp310
g6
I1
sg7
I2
sg8
I0
sba(ibasic
Map_Basic
p311
(dp312
g6
I1
sg7
I2
sg8
I0
sba(ibasic
Map_Basic
p313
(dp314
g6
I1
sg7
I2
sg8
I0
sba(ibasic
Map_Basic
p315
(dp316
g6
I1
sg7
I2
sg8
I0
sba(ibasic
Map_Basic
p317
(dp318
g6
I1
sg7
I2
sg8
I0
sba(ibasic
Map_Basic
p319
(dp320
g6
I0
sg7
I1
sg8
I0
sba(ibasic
Map_Mirror
p321
(dp322
g6
I6
sg7
I1
sg8
I0
sg25
(I7
I7
tp323
sba(ibasic
Map_Basic
p324
(dp325
g6
I3
sg7
I1
sg8
I0
sba(ibasic
Map_Basic
p326
(dp327
g6
I1
sg7
I2
sg8
I0
sba(ibasic
Map_Basic
p328
(dp329
g6
I0
sg7
I1
sg8
I0
sba(ibasic
Map_Basic
p330
(dp331
g6
I1
sg7
I2
sg8
I0
sba(ibasic
Map_Basic
p332
(dp333
g6
I2
sg7
I2
sg8
I0
sba(ibasic
Map_Basic
p334
(dp335
g6
I2
sg7
I2
sg8
I0
sba(ibasic
Map_Basic
p336
(dp337
g6
I1
sg7
I2
sg8
I0
sba(ibasic
Map_Basic
p338
(dp339
g6
I2
sg7
I2
sg8
I0
sba(ibasic
Map_Basic
p340
(dp341
g6
I1
sg7
I2
sg8
I0
sba(ibasic
Map_Basic
p342
(dp343
g6
I0
sg7
I1
sg8
I0
sba(ibasic
Map_Basic
p344
(dp345
g6
I1
sg7
I2
sg8
I0
sbaa(lp346
(ibasic
Map_Basic
p347
(dp348
g6
I0
sg7
I1
sg8
I0
sba(ibasic
Map_Basic
p349
(dp350
g6
I0
sg7
I1
sg8
I0
sba(ibasic
Map_Basic
p351
(dp352
g6
I1
sg7
I2
sg8
I0
sba(ibasic
Map_Basic
p353
(dp354
g6
I1
sg7
I2
sg8
I0
sba(ibasic
Map_Basic
p355
(dp356
g6
I1
sg7
I2
sg8
I0
sba(ibasic
Map_Basic
p357
(dp358
g6
I1
sg7
I2
sg8
I0
sba(ibasic
Map_Basic
p359
(dp360
g6
I1
sg7
I2
sg8
I0
sba(ibasic
Map_Basic
p361
(dp362
g6
I0
sg7
I1
sg8
I0
sba(ibasic
Map_Mirror
p363
(dp364
g6
I6
sg7
I1
sg8
I0
sg25
(I8
I0
tp365
sba(ibasic
Map_Basic
p366
(dp367
g6
I3
sg7
I1
sg8
I0
sba(ibasic
Map_Basic
p368
(dp369
g6
I1
sg7
I2
sg8
I0
sba(ibasic
Map_Basic
p370
(dp371
g6
I0
sg7
I1
sg8
I0
sba(ibasic
Map_Basic
p372
(dp373
g6
I1
sg7
I2
sg8
I0
sba(ibasic
Map_Basic
p374
(dp375
g6
I2
sg7
I2
sg8
I0
sba(ibasic
Map_Basic
p376
(dp377
g6
I2
sg7
I2
sg8
I0
sba(ibasic
Map_Basic
p378
(dp379
g6
I1
sg7
I2
sg8
I0
sba(ibasic
Map_Basic
p380
(dp381
g6
I2
sg7
I2
sg8
I0
sba(ibasic
Map_Basic
p382
(dp383
g6
I1
sg7
I2
sg8
I0
sba(ibasic
Map_Basic
p384
(dp385
g6
I0
sg7
I1
sg8
I0
sba(ibasic
Map_Basic
p386
(dp387
g6
I1
sg7
I2
sg8
I0
sbaa(lp388
(ibasic
Map_Basic
p389
(dp390
g6
I0
sg7
I1
sg8
I0
sba(ibasic
Map_Turret
p391
(dp392
g6
I4
sg7
I1
sg8
I2
sg141
I0
sba(ibasic
Map_Basic
p393
(dp394
g6
I1
sg7
I2
sg8
I0
sba(ibasic
Map_Basic
p395
(dp396
g6
I1
sg7
I2
sg8
I0
sba(ibasic
Map_Basic
p397
(dp398
g6
I1
sg7
I2
sg8
I0
sba(ibasic
Map_Basic
p399
(dp400
g6
I1
sg7
I2
sg8
I0
sba(ibasic
Map_Basic
p401
(dp402
g6
I1
sg7
I2
sg8
I0
sba(ibasic
Map_Basic
p403
(dp404
g6
I0
sg7
I1
sg8
I0
sba(ibasic
Map_Mirror
p405
(dp406
g6
I6
sg7
I1
sg8
I0
sg25
(I8
I1
tp407
sba(ibasic
Map_Basic
p408
(dp409
g6
I3
sg7
I1
sg8
I0
sba(ibasic
Map_Basic
p410
(dp411
g6
I1
sg7
I2
sg8
I0
sba(ibasic
Map_Basic
p412
(dp413
g6
I0
sg7
I1
sg8
I0
sba(ibasic
Map_Basic
p414
(dp415
g6
I1
sg7
I2
sg8
I0
sba(ibasic
Map_Basic
p416
(dp417
g6
I2
sg7
I2
sg8
I0
sba(ibasic
Map_Basic
p418
(dp419
g6
I2
sg7
I2
sg8
I0
sba(ibasic
Map_Basic
p420
(dp421
g6
I1
sg7
I2
sg8
I0
sba(ibasic
Map_Basic
p422
(dp423
g6
I2
sg7
I2
sg8
I0
sba(ibasic
Map_Basic
p424
(dp425
g6
I1
sg7
I2
sg8
I0
sba(ibasic
Map_Basic
p426
(dp427
g6
I0
sg7
I1
sg8
I0
sba(ibasic
Map_Basic
p428
(dp429
g6
I1
sg7
I2
sg8
I0
sbaa(lp430
(ibasic
Map_Basic
p431
(dp432
g6
I0
sg7
I1
sg8
I0
sba(ibasic
Map_Turret
p433
(dp434
g6
I4
sg7
I1
sg8
I2
sg141
I0
sba(ibasic
Map_Basic
p435
(dp436
g6
I1
sg7
I2
sg8
I0
sba(ibasic
Map_Basic
p437
(dp438
g6
I1
sg7
I2
sg8
I0
sba(ibasic
Map_Basic
p439
(dp440
g6
I1
sg7
I2
sg8
I0
sba(ibasic
Map_Basic
p441
(dp442
g6
I1
sg7
I2
sg8
I0
sba(ibasic
Map_Basic
p443
(dp444
g6
I1
sg7
I2
sg8
I0
sba(ibasic
Map_Basic
p445
(dp446
g6
I0
sg7
I1
sg8
I0
sba(ibasic
Map_Mirror
p447
(dp448
g6
I6
sg7
I1
sg8
I0
sg25
(I8
I2
tp449
sba(ibasic
Map_Basic
p450
(dp451
g6
I3
sg7
I1
sg8
I0
sba(ibasic
Map_Basic
p452
(dp453
g6
I1
sg7
I2
sg8
I0
sba(ibasic
Map_Basic
p454
(dp455
g6
I0
sg7
I1
sg8
I0
sba(ibasic
Map_Basic
p456
(dp457
g6
I1
sg7
I2
sg8
I0
sba(ibasic
Map_Basic
p458
(dp459
g6
I2
sg7
I2
sg8
I0
sba(ibasic
Map_Basic
p460
(dp461
g6
I2
sg7
I2
sg8
I0
sba(ibasic
Map_Basic
p462
(dp463
g6
I1
sg7
I2
sg8
I0
sba(ibasic
Map_Basic
p464
(dp465
g6
I2
sg7
I2
sg8
I0
sba(ibasic
Map_Basic
p466
(dp467
g6
I1
sg7
I2
sg8
I0
sba(ibasic
Map_Basic
p468
(dp469
g6
I0
sg7
I1
sg8
I0
sba(ibasic
Map_Basic
p470
(dp471
g6
I1
sg7
I2
sg8
I0
sbaa(lp472
(ibasic
Map_Basic
p473
(dp474
g6
I0
sg7
I1
sg8
I0
sba(ibasic
Map_Turret
p475
(dp476
g6
I4
sg7
I1
sg8
I2
sg141
I0
sba(ibasic
Map_Basic
p477
(dp478
g6
I1
sg7
I2
sg8
I0
sba(ibasic
Map_Basic
p479
(dp480
g6
I1
sg7
I2
sg8
I0
sba(ibasic
Map_Basic
p481
(dp482
g6
I1
sg7
I2
sg8
I0
sba(ibasic
Map_Basic
p483
(dp484
g6
I1
sg7
I2
sg8
I0
sba(ibasic
Map_Basic
p485
(dp486
g6
I1
sg7
I2
sg8
I0
sba(ibasic
Map_Basic
p487
(dp488
g6
I0
sg7
I1
sg8
I0
sba(ibasic
Map_Mirror
p489
(dp490
g6
I6
sg7
I1
sg8
I0
sg25
(I7
I8
tp491
sba(ibasic
Map_Basic
p492
(dp493
g6
I3
sg7
I1
sg8
I0
sba(ibasic
Map_Basic
p494
(dp495
g6
I1
sg7
I2
sg8
I0
sba(ibasic
Map_Basic
p496
(dp497
g6
I0
sg7
I1
sg8
I0
sba(ibasic
Map_Basic
p498
(dp499
g6
I1
sg7
I2
sg8
I0
sba(ibasic
Map_Basic
p500
(dp501
g6
I2
sg7
I2
sg8
I0
sba(ibasic
Map_Basic
p502
(dp503
g6
I2
sg7
I2
sg8
I0
sba(ibasic
Map_Basic
p504
(dp505
g6
I1
sg7
I2
sg8
I0
sba(ibasic
Map_Basic
p506
(dp507
g6
I2
sg7
I2
sg8
I0
sba(ibasic
Map_Basic
p508
(dp509
g6
I1
sg7
I2
sg8
I0
sba(ibasic
Map_Basic
p510
(dp511
g6
I0
sg7
I1
sg8
I0
sba(ibasic
Map_Basic
p512
(dp513
g6
I1
sg7
I2
sg8
I0
sbaa(lp514
(ibasic
Map_Basic
p515
(dp516
g6
I0
sg7
I1
sg8
I0
sba(ibasic
Map_Turret
p517
(dp518
g6
I4
sg7
I1
sg8
I2
sg141
I0
sba(ibasic
Map_Basic
p519
(dp520
g6
I1
sg7
I2
sg8
I0
sba(ibasic
Map_Basic
p521
(dp522
g6
I1
sg7
I2
sg8
I0
sba(ibasic
Map_Basic
p523
(dp524
g6
I1
sg7
I2
sg8
I0
sba(ibasic
Map_Basic
p525
(dp526
g6
I1
sg7
I2
sg8
I0
sba(ibasic
Map_Basic
p527
(dp528
g6
I1
sg7
I2
sg8
I0
sba(ibasic
Map_Basic
p529
(dp530
g6
I0
sg7
I1
sg8
I0
sba(ibasic
Map_Mirror
p531
(dp532
g6
I6
sg7
I1
sg8
I0
sg25
(I8
I7
tp533
sba(ibasic
Map_Basic
p534
(dp535
g6
I3
sg7
I1
sg8
I0
sba(ibasic
Map_Basic
p536
(dp537
g6
I1
sg7
I2
sg8
I0
sba(ibasic
Map_Basic
p538
(dp539
g6
I0
sg7
I1
sg8
I0
sba(ibasic
Map_Basic
p540
(dp541
g6
I1
sg7
I2
sg8
I0
sba(ibasic
Map_Basic
p542
(dp543
g6
I2
sg7
I2
sg8
I0
sba(ibasic
Map_Basic
p544
(dp545
g6
I2
sg7
I2
sg8
I0
sba(ibasic
Map_Basic
p546
(dp547
g6
I1
sg7
I2
sg8
I0
sba(ibasic
Map_Basic
p548
(dp549
g6
I2
sg7
I2
sg8
I0
sba(ibasic
Map_Basic
p550
(dp551
g6
I1
sg7
I2
sg8
I0
sba(ibasic
Map_Basic
p552
(dp553
g6
I0
sg7
I1
sg8
I0
sba(ibasic
Map_Basic
p554
(dp555
g6
I1
sg7
I2
sg8
I0
sbaa(lp556
(ibasic
Map_Basic
p557
(dp558
g6
I0
sg7
I1
sg8
I0
sba(ibasic
Map_Turret
p559
(dp560
g6
I4
sg7
I1
sg8
I2
sg141
I0
sba(ibasic
Map_Basic
p561
(dp562
g6
I1
sg7
I2
sg8
I0
sba(ibasic
Map_Basic
p563
(dp564
g6
I1
sg7
I2
sg8
I0
sba(ibasic
Map_Basic
p565
(dp566
g6
I1
sg7
I2
sg8
I0
sba(ibasic
Map_Basic
p567
(dp568
g6
I1
sg7
I2
sg8
I0
sba(ibasic
Map_Basic
p569
(dp570
g6
I1
sg7
I2
sg8
I0
sba(ibasic
Map_Basic
p571
(dp572
g6
I0
sg7
I1
sg8
I0
sba(ibasic
Map_Mirror
p573
(dp574
g6
I6
sg7
I1
sg8
I0
sg25
(I5
I2
tp575
sba(ibasic
Map_Basic
p576
(dp577
g6
I3
sg7
I1
sg8
I0
sba(ibasic
Map_Basic
p578
(dp579
g6
I1
sg7
I2
sg8
I0
sba(ibasic
Map_Basic
p580
(dp581
g6
I0
sg7
I1
sg8
I0
sba(ibasic
Map_Basic
p582
(dp583
g6
I1
sg7
I2
sg8
I0
sba(ibasic
Map_Basic
p584
(dp585
g6
I2
sg7
I2
sg8
I0
sba(ibasic
Map_Basic
p586
(dp587
g6
I2
sg7
I2
sg8
I0
sba(ibasic
Map_Basic
p588
(dp589
g6
I1
sg7
I2
sg8
I0
sba(ibasic
Map_Basic
p590
(dp591
g6
I2
sg7
I2
sg8
I0
sba(ibasic
Map_Basic
p592
(dp593
g6
I1
sg7
I2
sg8
I0
sba(ibasic
Map_Basic
p594
(dp595
g6
I0
sg7
I1
sg8
I0
sba(ibasic
Map_Basic
p596
(dp597
g6
I1
sg7
I2
sg8
I0
sbaa(lp598
(ibasic
Map_Basic
p599
(dp600
g6
I0
sg7
I1
sg8
I0
sba(ibasic
Map_Turret
p601
(dp602
g6
I4
sg7
I1
sg8
I2
sg141
I0
sba(ibasic
Map_Basic
p603
(dp604
g6
I1
sg7
I2
sg8
I0
sba(ibasic
Map_Basic
p605
(dp606
g6
I1
sg7
I2
sg8
I0
sba(ibasic
Map_Basic
p607
(dp608
g6
I1
sg7
I2
sg8
I0
sba(ibasic
Map_Basic
p609
(dp610
g6
I1
sg7
I2
sg8
I0
sba(ibasic
Map_Basic
p611
(dp612
g6
I1
sg7
I2
sg8
I0
sba(ibasic
Map_Basic
p613
(dp614
g6
I0
sg7
I1
sg8
I0
sba(ibasic
Map_Mirror
p615
(dp616
g6
I6
sg7
I1
sg8
I0
sg25
(I10
I0
tp617
sba(ibasic
Map_Basic
p618
(dp619
g6
I3
sg7
I1
sg8
I0
sba(ibasic
Map_Basic
p620
(dp621
g6
I1
sg7
I2
sg8
I0
sba(ibasic
Map_Basic
p622
(dp623
g6
I0
sg7
I1
sg8
I0
sba(ibasic
Map_Basic
p624
(dp625
g6
I1
sg7
I2
sg8
I0
sba(ibasic
Map_Basic
p626
(dp627
g6
I2
sg7
I2
sg8
I0
sba(ibasic
Map_Basic
p628
(dp629
g6
I2
sg7
I2
sg8
I0
sba(ibasic
Map_Basic
p630
(dp631
g6
I1
sg7
I2
sg8
I0
sba(ibasic
Map_Basic
p632
(dp633
g6
I2
sg7
I2
sg8
I0
sba(ibasic
Map_Basic
p634
(dp635
g6
I1
sg7
I2
sg8
I0
sba(ibasic
Map_Basic
p636
(dp637
g6
I0
sg7
I1
sg8
I0
sba(ibasic
Map_Basic
p638
(dp639
g6
I1
sg7
I2
sg8
I0
sbaa(lp640
(ibasic
Map_Basic
p641
(dp642
g6
I0
sg7
I1
sg8
I0
sba(ibasic
Map_Turret
p643
(dp644
g6
I4
sg7
I1
sg8
I2
sg141
I0
sba(ibasic
Map_Basic
p645
(dp646
g6
I1
sg7
I2
sg8
I0
sba(ibasic
Map_Basic
p647
(dp648
g6
I1
sg7
I2
sg8
I0
sba(ibasic
Map_Basic
p649
(dp650
g6
I1
sg7
I2
sg8
I0
sba(ibasic
Map_Basic
p651
(dp652
g6
I1
sg7
I2
sg8
I0
sba(ibasic
Map_Basic
p653
(dp654
g6
I1
sg7
I2
sg8
I0
sba(ibasic
Map_Basic
p655
(dp656
g6
I0
sg7
I1
sg8
I0
sba(ibasic
Map_Mirror
p657
(dp658
g6
I6
sg7
I1
sg8
I0
sg25
(I10
I1
tp659
sba(ibasic
Map_Basic
p660
(dp661
g6
I3
sg7
I1
sg8
I0
sba(ibasic
Map_Basic
p662
(dp663
g6
I1
sg7
I2
sg8
I0
sba(ibasic
Map_Basic
p664
(dp665
g6
I0
sg7
I1
sg8
I0
sba(ibasic
Map_Basic
p666
(dp667
g6
I1
sg7
I2
sg8
I0
sba(ibasic
Map_Basic
p668
(dp669
g6
I2
sg7
I2
sg8
I0
sba(ibasic
Map_Basic
p670
(dp671
g6
I2
sg7
I2
sg8
I0
sba(ibasic
Map_Basic
p672
(dp673
g6
I1
sg7
I2
sg8
I0
sba(ibasic
Map_Basic
p674
(dp675
g6
I2
sg7
I2
sg8
I0
sba(ibasic
Map_Basic
p676
(dp677
g6
I1
sg7
I2
sg8
I0
sba(ibasic
Map_Basic
p678
(dp679
g6
I0
sg7
I1
sg8
I0
sba(ibasic
Map_Basic
p680
(dp681
g6
I1
sg7
I2
sg8
I0
sbaa(lp682
(ibasic
Map_Basic
p683
(dp684
g6
I0
sg7
I1
sg8
I0
sba(ibasic
Map_Turret
p685
(dp686
g6
I4
sg7
I1
sg8
I2
sg141
I0
sba(ibasic
Map_Basic
p687
(dp688
g6
I1
sg7
I2
sg8
I0
sba(ibasic
Map_Basic
p689
(dp690
g6
I1
sg7
I2
sg8
I0
sba(ibasic
Map_Basic
p691
(dp692
g6
I1
sg7
I2
sg8
I0
sba(ibasic
Map_Basic
p693
(dp694
g6
I1
sg7
I2
sg8
I0
sba(ibasic
Map_Basic
p695
(dp696
g6
I1
sg7
I2
sg8
I0
sba(ibasic
Map_Basic
p697
(dp698
g6
I0
sg7
I1
sg8
I0
sba(ibasic
Map_Basic
p699
(dp700
g6
I1
sg7
I2
sg8
I0
sba(ibasic
Map_Basic
p701
(dp702
g6
I3
sg7
I1
sg8
I0
sba(ibasic
Map_Basic
p703
(dp704
g6
I1
sg7
I2
sg8
I0
sba(ibasic
Map_Basic
p705
(dp706
g6
I0
sg7
I1
sg8
I0
sba(ibasic
Map_Basic
p707
(dp708
g6
I1
sg7
I2
sg8
I0
sba(ibasic
Map_Basic
p709
(dp710
g6
I2
sg7
I2
sg8
I0
sba(ibasic
Map_Basic
p711
(dp712
g6
I2
sg7
I2
sg8
I0
sba(ibasic
Map_Basic
p713
(dp714
g6
I1
sg7
I2
sg8
I0
sba(ibasic
Map_Basic
p715
(dp716
g6
I2
sg7
I2
sg8
I0
sba(ibasic
Map_Basic
p717
(dp718
g6
I1
sg7
I2
sg8
I0
sba(ibasic
Map_Basic
p719
(dp720
g6
I0
sg7
I1
sg8
I0
sba(ibasic
Map_Basic
p721
(dp722
g6
I1
sg7
I2
sg8
I0
sbaa(lp723
(ibasic
Map_Basic
p724
(dp725
g6
I0
sg7
I1
sg8
I0
sba(ibasic
Map_Turret
p726
(dp727
g6
I4
sg7
I1
sg8
I2
sg141
I0
sba(ibasic
Map_Basic
p728
(dp729
g6
I1
sg7
I2
sg8
I0
sba(ibasic
Map_Basic
p730
(dp731
g6
I1
sg7
I2
sg8
I0
sba(ibasic
Map_Basic
p732
(dp733
g6
I1
sg7
I2
sg8
I0
sba(ibasic
Map_Basic
p734
(dp735
g6
I1
sg7
I2
sg8
I0
sba(ibasic
Map_Basic
p736
(dp737
g6
I1
sg7
I2
sg8
I0
sba(ibasic
Map_Basic
p738
(dp739
g6
I0
sg7
I1
sg8
I0
sba(ibasic
Map_Basic
p740
(dp741
g6
I1
sg7
I2
sg8
I0
sba(ibasic
Map_Basic
p742
(dp743
g6
I3
sg7
I1
sg8
I0
sba(ibasic
Map_Basic
p744
(dp745
g6
I1
sg7
I2
sg8
I0
sba(ibasic
Map_Basic
p746
(dp747
g6
I0
sg7
I1
sg8
I0
sba(ibasic
Map_Basic
p748
(dp749
g6
I1
sg7
I2
sg8
I0
sba(ibasic
Map_Basic
p750
(dp751
g6
I2
sg7
I2
sg8
I0
sba(ibasic
Map_Basic
p752
(dp753
g6
I2
sg7
I2
sg8
I0
sba(ibasic
Map_Basic
p754
(dp755
g6
I1
sg7
I2
sg8
I0
sba(ibasic
Map_Basic
p756
(dp757
g6
I2
sg7
I2
sg8
I0
sba(ibasic
Map_Basic
p758
(dp759
g6
I1
sg7
I2
sg8
I0
sba(ibasic
Map_Basic
p760
(dp761
g6
I0
sg7
I1
sg8
I0
sba(ibasic
Map_Basic
p762
(dp763
g6
I1
sg7
I2
sg8
I0
sbaa(lp764
(ibasic
Map_Basic
p765
(dp766
g6
I0
sg7
I1
sg8
I0
sba(ibasic
Map_Turret
p767
(dp768
g6
I4
sg7
I1
sg8
I2
sg141
I0
sba(ibasic
Map_Basic
p769
(dp770
g6
I1
sg7
I2
sg8
I0
sba(ibasic
Map_Basic
p771
(dp772
g6
I1
sg7
I2
sg8
I0
sba(ibasic
Map_Basic
p773
(dp774
g6
I1
sg7
I2
sg8
I0
sba(ibasic
Map_Basic
p775
(dp776
g6
I1
sg7
I2
sg8
I0
sba(ibasic
Map_Basic
p777
(dp778
g6
I1
sg7
I2
sg8
I0
sba(ibasic
Map_Basic
p779
(dp780
g6
I0
sg7
I1
sg8
I0
sba(ibasic
Map_Basic
p781
(dp782
g6
I1
sg7
I2
sg8
I0
sba(ibasic
Map_Basic
p783
(dp784
g6
I3
sg7
I1
sg8
I0
sba(ibasic
Map_Basic
p785
(dp786
g6
I1
sg7
I2
sg8
I0
sba(ibasic
Map_Basic
p787
(dp788
g6
I0
sg7
I1
sg8
I0
sba(ibasic
Map_Basic
p789
(dp790
g6
I1
sg7
I2
sg8
I0
sba(ibasic
Map_Basic
p791
(dp792
g6
I2
sg7
I2
sg8
I0
sba(ibasic
Map_Basic
p793
(dp794
g6
I2
sg7
I2
sg8
I0
sba(ibasic
Map_Basic
p795
(dp796
g6
I1
sg7
I2
sg8
I0
sba(ibasic
Map_Basic
p797
(dp798
g6
I2
sg7
I2
sg8
I0
sba(ibasic
Map_Basic
p799
(dp800
g6
I1
sg7
I2
sg8
I0
sba(ibasic
Map_Basic
p801
(dp802
g6
I0
sg7
I1
sg8
I0
sba(ibasic
Map_Basic
p803
(dp804
g6
I1
sg7
I2
sg8
I0
sbaa(lp805
(ibasic
Map_Basic
p806
(dp807
g6
I0
sg7
I1
sg8
I0
sba(ibasic
Map_Turret
p808
(dp809
g6
I4
sg7
I1
sg8
I2
sg141
I0
sba(ibasic
Map_Basic
p810
(dp811
g6
I1
sg7
I2
sg8
I0
sba(ibasic
Map_Basic
p812
(dp813
g6
I1
sg7
I2
sg8
I0
sba(ibasic
Map_Basic
p814
(dp815
g6
I1
sg7
I2
sg8
I0
sba(ibasic
Map_Basic
p816
(dp817
g6
I1
sg7
I2
sg8
I0
sba(ibasic
Map_Basic
p818
(dp819
g6
I1
sg7
I2
sg8
I0
sba(ibasic
Map_Basic
p820
(dp821
g6
I0
sg7
I1
sg8
I0
sba(ibasic
Map_Basic
p822
(dp823
g6
I1
sg7
I2
sg8
I0
sba(ibasic
Map_Basic
p824
(dp825
g6
I3
sg7
I1
sg8
I0
sba(ibasic
Map_Basic
p826
(dp827
g6
I1
sg7
I2
sg8
I0
sba(ibasic
Map_Basic
p828
(dp829
g6
I0
sg7
I1
sg8
I0
sba(ibasic
Map_Basic
p830
(dp831
g6
I1
sg7
I2
sg8
I0
sba(ibasic
Map_Basic
p832
(dp833
g6
I2
sg7
I2
sg8
I0
sba(ibasic
Map_Basic
p834
(dp835
g6
I2
sg7
I2
sg8
I0
sba(ibasic
Map_Basic
p836
(dp837
g6
I1
sg7
I2
sg8
I0
sba(ibasic
Map_Basic
p838
(dp839
g6
I2
sg7
I2
sg8
I0
sba(ibasic
Map_Basic
p840
(dp841
g6
I1
sg7
I2
sg8
I0
sba(ibasic
Map_Basic
p842
(dp843
g6
I0
sg7
I1
sg8
I0
sba(ibasic
Map_Basic
p844
(dp845
g6
I1
sg7
I2
sg8
I0
sbaa(lp846
(lp847
(ibasic
Base_Unit
p848
(dp849
g6
I7
sS'strength'
p850
I17
sS'move_speed'
p851
I6
sS'life'
p852
I55
sg180
I0
sS'defence'
p853
I15
sg141
I0
sS'position'
p854
(I0
I0
tp855
sS'move_range'
p856
I5
sS'agility'
p857
I90
sS'attack_range'
p858
(lp859
I1
asba(ibasic
Base_Unit
p860
(dp861
g6
I2
sg850
I17
sg851
I3
sg852
I25
sg180
I0
sg853
I12
sg141
I0
sg854
(I1
I0
tp862
sg856
I6
sg857
I90
sg858
(lp863
I2
asba(ibasic
Base_Unit
p864
(dp865
g6
I3
sg850
I15
sg851
I2
sg852
I21
sg180
I0
sg853
I10
sg141
I0
sg854
(I0
I2
tp866
sg856
I8
sg857
I95
sg858
(lp867
I1
asbaa(lp868
(ibasic
Base_Unit
p869
(dp870
g6
I8
sg850
I17
sg851
I6
sg852
I55
sg180
I0
sg853
I15
sg141
I0
sg854
(I3
I3
tp871
sg856
I5
sg857
I90
sg858
g859
sba(ibasic
Base_Unit
p872
(dp873
g6
I2
sg850
I17
sg851
I3
sg852
I25
sg180
I0
sg853
I12
sg141
I0
sg854
(I3
I2
tp874
sg856
I6
sg857
I90
sg858
g863
sba(ibasic
Base_Unit
p875
(dp876
g6
I1
sg850
I17
sg851
I4
sg852
I25
sg180
I0
sg853
I13
sg141
I0
sg854
(I3
I1
tp877
sg856
I7
sg857
I90
sg858
(lp878
I1
asbaa(lp879
S'Sample_AI'
p880
aS'Player'
p881
atp882
a(lp883
(ibasic
Round_Begin_Info
p884
(dp885
S'range'
p886
(lp887
(I0
I0
tp888
a(I0
I1
tp889
a(I2
I0
tp890
a(I1
I1
tp891
a(I3
I0
tp892
a(I2
I1
tp893
a(I1
I2
tp894
a(I4
I0
tp895
a(I2
I2
tp896
a(I0
I3
tp897
a(I5
I0
tp898
a(I4
I1
tp899
a(I1
I3
tp900
asS'base'
p901
(lp902
(lp903
(ibasic
Hero
p904
(dp905
g6
I7
sg850
I20
sg851
I6
sg852
I40
sg180
I0
sg853
I13
sg141
I0
sg854
g888
sg856
I6
sg857
I100
sg858
(lp906
I1
asba(ibasic
Base_Unit
p907
(dp908
g6
I2
sg850
I17
sg851
I3
sg852
I25
sg180
I0
sg853
I12
sg141
I0
sg854
(I1
I0
tp909
sg856
I6
sg857
I90
sg858
(lp910
I2
asba(ibasic
Base_Unit
p911
(dp912
g6
I3
sg850
I15
sg851
I2
sg852
I21
sg180
I0
sg853
I10
sg141
I0
sg854
(I0
I2
tp913
sg856
I8
sg857
I95
sg858
(lp914
I1
asbaa(lp915
(ibasic
Hero
p916
(dp917
g6
I8
sg850
I20
sg851
I6
sg852
I45
sg180
I0
sg853
I14
sg141
I0
sg854
(I3
I3
tp918
sg856
I7
sg857
I95
sg858
(lp919
I1
aI2
asba(ibasic
Base_Unit
p920
(dp921
g6
I1
sg850
I17
sg851
I4
sg852
I25
sg180
I0
sg853
I13
sg141
I0
sg854
(I3
I1
tp922
sg856
I7
sg857
I90
sg858
(lp923
I1
asba(ibasic
Base_Unit
p924
(dp925
g6
I2
sg850
I17
sg851
I3
sg852
I25
sg180
I0
sg853
I12
sg141
I0
sg854
(I3
I2
tp926
sg856
I6
sg857
I90
sg858
g910
sbaasS'id'
p927
(I0
I0
tp928
sS'temple'
p929
(lp930
(lp931
(I4
I0
tp932
aI0
aasba(ibasic
Command
p933
(dp934
S'move'
p935
(I2
I2
tp936
sS'order'
p937
I1
sS'target'
p938
(I1
I2
tp939
sba(ibasic
Round_End_Info
p940
(dp941
S'over'
p942
I00
sg8
(lp943
I0
aI0
asS'route'
p944
(lp945
(I0
I0
tp946
a(I0
I1
tp947
a(I0
I2
tp948
a(I1
I2
tp949
a(I2
I2
tp950
asg901
(lp951
(lp952
(ibasic
Hero
p953
(dp954
g6
I7
sg850
I20
sg851
I6
sg852
I40
sg180
I0
sg853
I14
sg141
I0
sg854
g950
sg856
I6
sg857
I100
sg858
(lp955
I1
asba(ibasic
Base_Unit
p956
(dp957
g6
I2
sg850
I17
sg851
I3
sg852
I25
sg180
I0
sg853
I12
sg141
I0
sg854
(I1
I0
tp958
sg856
I6
sg857
I90
sg858
(lp959
I2
asba(ibasic
Base_Unit
p960
(dp961
g6
I3
sg850
I15
sg851
I2
sg852
I21
sg180
I0
sg853
I10
sg141
I0
sg854
(I0
I2
tp962
sg856
I8
sg857
I95
sg858
(lp963
I1
asbaa(lp964
(ibasic
Hero
p965
(dp966
g6
I8
sg850
I20
sg851
I6
sg852
I45
sg180
I0
sg853
I14
sg141
I0
sg854
(I3
I3
tp967
sg856
I7
sg857
I95
sg858
(lp968
I1
aI2
asba(ibasic
Base_Unit
p969
(dp970
g6
I1
sg850
I17
sg851
I4
sg852
I25
sg180
I0
sg853
I13
sg141
I0
sg854
(I3
I1
tp971
sg856
I7
sg857
I90
sg858
(lp972
I1
asba(ibasic
Base_Unit
p973
(dp974
g6
I2
sg850
I17
sg851
I3
sg852
I17
sg180
I0
sg853
I12
sg141
I0
sg854
(I3
I2
tp975
sg856
I6
sg857
I90
sg858
g959
sbaasS'effect'
p976
(I01
I-1
tp977
sbaa(lp978
(ibasic
Round_Begin_Info
p979
(dp980
g886
(lp981
(I3
I3
tp982
a(I4
I3
tp983
a(I2
I3
tp984
a(I3
I4
tp985
a(I4
I2
tp986
a(I5
I3
tp987
a(I4
I4
tp988
a(I1
I3
tp989
a(I2
I4
tp990
a(I3
I5
tp991
a(I4
I1
tp992
a(I2
I1
tp993
a(I3
I0
tp994
a(I5
I2
tp995
a(I5
I1
tp996
a(I4
I0
tp997
a(I1
I1
tp998
a(I2
I0
tp999
a(I6
I3
tp1000
a(I5
I4
tp1001
a(I4
I5
tp1002
a(I0
I3
tp1003
a(I1
I4
tp1004
a(I1
I2
tp1005
a(I2
I5
tp1006
a(I3
I6
tp1007
a(I6
I1
tp1008
a(I5
I0
tp1009
a(I0
I1
tp1010
asg901
(lp1011
(lp1012
(ibasic
Hero
p1013
(dp1014
g6
I7
sg850
I20
sg851
I6
sg852
I40
sg180
I0
sg853
I14
sg141
I0
sg854
(I2
I2
tp1015
sg856
I6
sg857
I100
sg858
(lp1016
I1
asba(ibasic
Base_Unit
p1017
(dp1018
g6
I2
sg850
I17
sg851
I3
sg852
I25
sg180
I0
sg853
I12
sg141
I0
sg854
(I1
I0
tp1019
sg856
I6
sg857
I90
sg858
(lp1020
I2
asba(ibasic
Base_Unit
p1021
(dp1022
g6
I3
sg850
I15
sg851
I2
sg852
I21
sg180
I0
sg853
I10
sg141
I0
sg854
(I0
I2
tp1023
sg856
I8
sg857
I95
sg858
(lp1024
I1
asbaa(lp1025
(ibasic
Hero
p1026
(dp1027
g6
I8
sg850
I20
sg851
I6
sg852
I45
sg180
I0
sg853
I14
sg141
I0
sg854
g982
sg856
I7
sg857
I95
sg858
(lp1028
I1
aI2
asba(ibasic
Base_Unit
p1029
(dp1030
g6
I1
sg850
I17
sg851
I4
sg852
I25
sg180
I0
sg853
I13
sg141
I0
sg854
(I3
I1
tp1031
sg856
I7
sg857
I90
sg858
(lp1032
I1
asba(ibasic
Base_Unit
p1033
(dp1034
g6
I2
sg850
I17
sg851
I3
sg852
I17
sg180
I0
sg853
I12
sg141
I0
sg854
(I3
I2
tp1035
sg856
I6
sg857
I90
sg858
g1020
sbaasg927
(I1
I0
tp1036
sg929
(lp1037
(lp1038
(I4
I0
tp1039
aI0
aasba(ibasic
Command
p1040
(dp1041
g935
(I1
I1
tp1042
sg937
I1
sg938
(I0
I1
tp1043
sba(ibasic
Round_End_Info
p1044
(dp1045
g942
I00
sg8
(lp1046
I0
aI0
asg944
(lp1047
(I3
I3
tp1048
a(I3
I2
tp1049
a(I3
I1
tp1050
a(I2
I1
tp1051
a(I1
I1
tp1052
asg901
(lp1053
(lp1054
(ibasic
Hero
p1055
(dp1056
g6
I7
sg850
I20
sg851
I6
sg852
I40
sg180
I0
sg853
I14
sg141
I0
sg854
(I2
I2
tp1057
sg856
I6
sg857
I100
sg858
(lp1058
I1
asba(ibasic
Base_Unit
p1059
(dp1060
g6
I2
sg850
I17
sg851
I3
sg852
I17
sg180
I0
sg853
I12
sg141
I0
sg854
(I1
I0
tp1061
sg856
I6
sg857
I90
sg858
(lp1062
I2
asba(ibasic
Base_Unit
p1063
(dp1064
g6
I3
sg850
I15
sg851
I2
sg852
I21
sg180
I0
sg853
I10
sg141
I0
sg854
(I0
I2
tp1065
sg856
I8
sg857
I95
sg858
(lp1066
I1
asbaa(lp1067
(ibasic
Hero
p1068
(dp1069
g6
I8
sg850
I20
sg851
I6
sg852
I45
sg180
I0
sg853
I13
sg141
I0
sg854
g1052
sg856
I7
sg857
I95
sg858
(lp1070
I1
aI2
asba(ibasic
Base_Unit
p1071
(dp1072
g6
I1
sg850
I17
sg851
I4
sg852
I25
sg180
I0
sg853
I13
sg141
I0
sg854
(I3
I1
tp1073
sg856
I7
sg857
I90
sg858
(lp1074
I1
asba(ibasic
Base_Unit
p1075
(dp1076
g6
I2
sg850
I17
sg851
I3
sg852
I17
sg180
I0
sg853
I12
sg141
I0
sg854
(I3
I2
tp1077
sg856
I6
sg857
I90
sg858
g1062
sbaasg976
(I01
I-1
tp1078
sbaa(lp1079
(ibasic
Round_Begin_Info
p1080
(dp1081
g886
(lp1082
(I1
I0
tp1083
a(I2
I0
tp1084
a(I0
I0
tp1085
a(I3
I0
tp1086
a(I2
I1
tp1087
a(I0
I1
tp1088
a(I4
I0
tp1089
a(I5
I0
tp1090
a(I4
I1
tp1091
a(I6
I0
tp1092
a(I5
I1
tp1093
a(I4
I2
tp1094
a(I1
I2
tp1095
a(I2
I3
tp1096
a(I0
I3
tp1097
asg901
(lp1098
(lp1099
(ibasic
Hero
p1100
(dp1101
g6
I7
sg850
I20
sg851
I6
sg852
I40
sg180
I0
sg853
I14
sg141
I0
sg854
(I2
I2
tp1102
sg856
I6
sg857
I100
sg858
(lp1103
I1
asba(ibasic
Base_Unit
p1104
(dp1105
g6
I2
sg850
I17
sg851
I3
sg852
I17
sg180
I0
sg853
I12
sg141
I0
sg854
g1083
sg856
I6
sg857
I90
sg858
(lp1106
I2
asba(ibasic
Base_Unit
p1107
(dp1108
g6
I3
sg850
I15
sg851
I2
sg852
I21
sg180
I0
sg853
I10
sg141
I0
sg854
(I0
I2
tp1109
sg856
I8
sg857
I95
sg858
(lp1110
I1
asbaa(lp1111
(ibasic
Hero
p1112
(dp1113
g6
I8
sg850
I20
sg851
I6
sg852
I45
sg180
I0
sg853
I13
sg141
I0
sg854
(I1
I1
tp1114
sg856
I7
sg857
I95
sg858
(lp1115
I1
aI2
asba(ibasic
Base_Unit
p1116
(dp1117
g6
I1
sg850
I17
sg851
I4
sg852
I25
sg180
I0
sg853
I13
sg141
I0
sg854
(I3
I1
tp1118
sg856
I7
sg857
I90
sg858
(lp1119
I1
asba(ibasic
Base_Unit
p1120
(dp1121
g6
I2
sg850
I17
sg851
I3
sg852
I17
sg180
I0
sg853
I12
sg141
I0
sg854
(I3
I2
tp1122
sg856
I6
sg857
I90
sg858
g1106
sbaasg927
(I0
I1
tp1123
sg929
(lp1124
(lp1125
(I4
I0
tp1126
aI0
aasba(ibasic
Command
p1127
(dp1128
g935
(I3
I0
tp1129
sg937
I1
sg938
(I1
I2
tp1130
sba(ibasic
Round_End_Info
p1131
(dp1132
g942
I00
sg8
(lp1133
I0
aI0
asg944
(lp1134
(I1
I0
tp1135
a(I2
I0
tp1136
a(I3
I0
tp1137
asg901
(lp1138
(lp1139
(ibasic
Hero
p1140
(dp1141
g6
I7
sg850
I20
sg851
I6
sg852
I40
sg180
I0
sg853
I14
sg141
I0
sg854
(I2
I2
tp1142
sg856
I6
sg857
I100
sg858
(lp1143
I1
asba(ibasic
Base_Unit
p1144
(dp1145
g6
I2
sg850
I17
sg851
I3
sg852
I12
sg180
I0
sg853
I12
sg141
I0
sg854
g1137
sg856
I6
sg857
I90
sg858
(lp1146
I2
asba(ibasic
Base_Unit
p1147
(dp1148
g6
I3
sg850
I15
sg851
I2
sg852
I21
sg180
I0
sg853
I10
sg141
I0
sg854
(I0
I2
tp1149
sg856
I8
sg857
I95
sg858
(lp1150
I1
asbaa(lp1151
(ibasic
Hero
p1152
(dp1153
g6
I8
sg850
I20
sg851
I6
sg852
I45
sg180
I0
sg853
I13
sg141
I0
sg854
(I1
I1
tp1154
sg856
I7
sg857
I95
sg858
(lp1155
I1
aI2
asba(ibasic
Base_Unit
p1156
(dp1157
g6
I1
sg850
I17
sg851
I4
sg852
I25
sg180
I0
sg853
I13
sg141
I0
sg854
(I3
I1
tp1158
sg856
I7
sg857
I90
sg858
(lp1159
I1
asba(ibasic
Base_Unit
p1160
(dp1161
g6
I2
sg850
I17
sg851
I3
sg852
I12
sg180
I0
sg853
I12
sg141
I0
sg854
(I3
I2
tp1162
sg856
I6
sg857
I90
sg858
g1146
sbaasg976
(I01
I01
tp1163
sbaa(lp1164
(ibasic
Round_Begin_Info
p1165
(dp1166
g886
(lp1167
(I3
I1
tp1168
a(I4
I1
tp1169
a(I2
I1
tp1170
a(I5
I1
tp1171
a(I4
I2
tp1172
a(I4
I0
tp1173
a(I2
I0
tp1174
a(I3
I3
tp1175
a(I6
I1
tp1176
a(I5
I2
tp1177
a(I5
I0
tp1178
a(I0
I1
tp1179
a(I1
I2
tp1180
a(I1
I0
tp1181
a(I7
I1
tp1182
a(I6
I2
tp1183
a(I6
I0
tp1184
a(I4
I3
tp1185
a(I0
I0
tp1186
a(I2
I3
tp1187
a(I3
I4
tp1188
a(I8
I1
tp1189
a(I7
I2
tp1190
a(I7
I0
tp1191
a(I5
I3
tp1192
a(I1
I3
tp1193
a(I9
I1
tp1194
a(I8
I2
tp1195
a(I8
I0
tp1196
a(I6
I3
tp1197
a(I4
I4
tp1198
a(I2
I4
tp1199
a(I3
I5
tp1200
asg901
(lp1201
(lp1202
(ibasic
Hero
p1203
(dp1204
g6
I7
sg850
I20
sg851
I6
sg852
I40
sg180
I0
sg853
I14
sg141
I0
sg854
(I2
I2
tp1205
sg856
I6
sg857
I100
sg858
(lp1206
I1
asba(ibasic
Base_Unit
p1207
(dp1208
g6
I2
sg850
I17
sg851
I3
sg852
I12
sg180
I0
sg853
I12
sg141
I0
sg854
(I3
I0
tp1209
sg856
I6
sg857
I90
sg858
(lp1210
I2
asba(ibasic
Base_Unit
p1211
(dp1212
g6
I3
sg850
I15
sg851
I2
sg852
I21
sg180
I0
sg853
I10
sg141
I0
sg854
(I0
I2
tp1213
sg856
I8
sg857
I95
sg858
(lp1214
I1
asbaa(lp1215
(ibasic
Hero
p1216
(dp1217
g6
I8
sg850
I20
sg851
I6
sg852
I45
sg180
I0
sg853
I13
sg141
I0
sg854
(I1
I1
tp1218
sg856
I7
sg857
I95
sg858
(lp1219
I1
aI2
asba(ibasic
Base_Unit
p1220
(dp1221
g6
I1
sg850
I17
sg851
I4
sg852
I25
sg180
I0
sg853
I13
sg141
I0
sg854
g1168
sg856
I7
sg857
I90
sg858
(lp1222
I1
asba(ibasic
Base_Unit
p1223
(dp1224
g6
I2
sg850
I17
sg851
I3
sg852
I12
sg180
I0
sg853
I12
sg141
I0
sg854
(I3
I2
tp1225
sg856
I6
sg857
I90
sg858
g1210
sbaasg927
(I1
I1
tp1226
sg929
(lp1227
(lp1228
(I4
I0
tp1229
aI0
aasba(ibasic
Command
p1230
(dp1231
g935
(I4
I0
tp1232
sg937
I1
sg938
(I0
I1
tp1233
sba(ibasic
Round_End_Info
p1234
(dp1235
g942
I00
sg8
(lp1236
I0
aI0
asg944
(lp1237
(I3
I1
tp1238
a(I4
I1
tp1239
a(I4
I0
tp1240
asg901
(lp1241
(lp1242
(ibasic
Hero
p1243
(dp1244
g6
I7
sg850
I20
sg851
I6
sg852
I40
sg180
I0
sg853
I14
sg141
I0
sg854
(I2
I2
tp1245
sg856
I6
sg857
I100
sg858
(lp1246
I1
asba(ibasic
Base_Unit
p1247
(dp1248
g6
I2
sg850
I17
sg851
I3
sg852
I12
sg180
I0
sg853
I12
sg141
I0
sg854
(I3
I0
tp1249
sg856
I6
sg857
I90
sg858
(lp1250
I2
asba(ibasic
Base_Unit
p1251
(dp1252
g6
I3
sg850
I15
sg851
I2
sg852
I21
sg180
I0
sg853
I10
sg141
I0
sg854
(I0
I2
tp1253
sg856
I8
sg857
I95
sg858
(lp1254
I1
asbaa(lp1255
(ibasic
Hero
p1256
(dp1257
g6
I8
sg850
I20
sg851
I6
sg852
I45
sg180
I0
sg853
I13
sg141
I0
sg854
(I1
I1
tp1258
sg856
I7
sg857
I95
sg858
(lp1259
I1
aI2
asba(ibasic
Base_Unit
p1260
(dp1261
g6
I1
sg850
I17
sg851
I4
sg852
I25
sg180
I0
sg853
I13
sg141
I0
sg854
g1240
sg856
I7
sg857
I90
sg858
(lp1262
I1
asba(ibasic
Base_Unit
p1263
(dp1264
g6
I2
sg850
I17
sg851
I3
sg852
I12
sg180
I0
sg853
I12
sg141
I0
sg854
(I3
I2
tp1265
sg856
I6
sg857
I90
sg858
g1250
sbaasg976
(I00
I-1
tp1266
sbaa(lp1267
(ibasic
Round_Begin_Info
p1268
(dp1269
g886
(lp1270
(I0
I2
tp1271
a(I1
I2
tp1272
a(I0
I3
tp1273
a(I0
I1
tp1274
a(I0
I0
tp1275
a(I1
I3
tp1276
a(I0
I4
tp1277
a(I2
I1
tp1278
a(I1
I0
tp1279
a(I3
I1
tp1280
a(I2
I0
tp1281
a(I2
I3
tp1282
a(I1
I4
tp1283
a(I0
I5
tp1284
a(I4
I1
tp1285
a(I4
I2
tp1286
a(I3
I3
tp1287
a(I5
I1
tp1288
asg901
(lp1289
(lp1290
(ibasic
Hero
p1291
(dp1292
g6
I7
sg850
I20
sg851
I6
sg852
I40
sg180
I0
sg853
I14
sg141
I0
sg854
(I2
I2
tp1293
sg856
I6
sg857
I100
sg858
(lp1294
I1
asba(ibasic
Base_Unit
p1295
(dp1296
g6
I2
sg850
I17
sg851
I3
sg852
I12
sg180
I0
sg853
I12
sg141
I0
sg854
(I3
I0
tp1297
sg856
I6
sg857
I90
sg858
(lp1298
I2
asba(ibasic
Base_Unit
p1299
(dp1300
g6
I3
sg850
I15
sg851
I2
sg852
I21
sg180
I0
sg853
I10
sg141
I0
sg854
g1271
sg856
I8
sg857
I95
sg858
(lp1301
I1
asbaa(lp1302
(ibasic
Hero
p1303
(dp1304
g6
I8
sg850
I20
sg851
I6
sg852
I45
sg180
I0
sg853
I13
sg141
I0
sg854
(I1
I1
tp1305
sg856
I7
sg857
I95
sg858
(lp1306
I1
aI2
asba(ibasic
Base_Unit
p1307
(dp1308
g6
I1
sg850
I17
sg851
I4
sg852
I25
sg180
I0
sg853
I13
sg141
I0
sg854
(I4
I0
tp1309
sg856
I7
sg857
I90
sg858
(lp1310
I1
asba(ibasic
Base_Unit
p1311
(dp1312
g6
I2
sg850
I17
sg851
I3
sg852
I12
sg180
I0
sg853
I12
sg141
I0
sg854
(I3
I2
tp1313
sg856
I6
sg857
I90
sg858
g1298
sbaasg927
(I0
I2
tp1314
sg929
(lp1315
(lp1316
(I4
I0
tp1317
aI0
aasba(ibasic
Command
p1318
(dp1319
g935
(I3
I1
tp1320
sg937
I1
sg938
(I1
I2
tp1321
sba(ibasic
Round_End_Info
p1322
(dp1323
g942
I00
sg8
(lp1324
I0
aI0
asg944
(lp1325
(I0
I2
tp1326
a(I0
I1
tp1327
a(I1
I1
tp1328
a(I2
I1
tp1329
a(I3
I1
tp1330
asg901
(lp1331
(lp1332
(ibasic
Hero
p1333
(dp1334
g6
I7
sg850
I20
sg851
I6
sg852
I40
sg180
I0
sg853
I14
sg141
I0
sg854
(I2
I2
tp1335
sg856
I6
sg857
I100
sg858
(lp1336
I1
asba(ibasic
Base_Unit
p1337
(dp1338
g6
I2
sg850
I17
sg851
I3
sg852
I12
sg180
I0
sg853
I12
sg141
I0
sg854
(I3
I0
tp1339
sg856
I6
sg857
I90
sg858
(lp1340
I2
asba(ibasic
Base_Unit
p1341
(dp1342
g6
I3
sg850
I15
sg851
I2
sg852
I21
sg180
I0
sg853
I9
sg141
I0
sg854
g1330
sg856
I8
sg857
I95
sg858
(lp1343
I1
asbaa(lp1344
(ibasic
Hero
p1345
(dp1346
g6
I8
sg850
I20
sg851
I6
sg852
I45
sg180
I0
sg853
I13
sg141
I0
sg854
(I1
I1
tp1347
sg856
I7
sg857
I95
sg858
(lp1348
I1
aI2
asba(ibasic
Base_Unit
p1349
(dp1350
g6
I1
sg850
I17
sg851
I4
sg852
I25
sg180
I0
sg853
I13
sg141
I0
sg854
(I4
I0
tp1351
sg856
I7
sg857
I90
sg858
(lp1352
I1
asba(ibasic
Base_Unit
p1353
(dp1354
g6
I2
sg850
I17
sg851
I3
sg852
I9
sg180
I0
sg853
I12
sg141
I0
sg854
(I3
I2
tp1355
sg856
I6
sg857
I90
sg858
g1340
sbaasg976
(I01
I-1
tp1356
sbaa(lp1357
(ibasic
Round_Begin_Info
p1358
(dp1359
g886
(lp1360
(I3
I2
tp1361
a(I4
I2
tp1362
a(I3
I3
tp1363
a(I5
I2
tp1364
a(I4
I3
tp1365
a(I4
I1
tp1366
a(I2
I3
tp1367
a(I3
I4
tp1368
a(I5
I1
tp1369
a(I6
I2
tp1370
a(I5
I3
tp1371
a(I4
I4
tp1372
a(I6
I1
tp1373
a(I5
I0
tp1374
a(I1
I3
tp1375
a(I2
I4
tp1376
a(I3
I5
tp1377
asg901
(lp1378
(lp1379
(ibasic
Hero
p1380
(dp1381
g6
I7
sg850
I20
sg851
I6
sg852
I40
sg180
I0
sg853
I14
sg141
I0
sg854
(I2
I2
tp1382
sg856
I6
sg857
I100
sg858
(lp1383
I1
asba(ibasic
Base_Unit
p1384
(dp1385
g6
I2
sg850
I17
sg851
I3
sg852
I12
sg180
I0
sg853
I12
sg141
I0
sg854
(I3
I0
tp1386
sg856
I6
sg857
I90
sg858
(lp1387
I2
asba(ibasic
Base_Unit
p1388
(dp1389
g6
I3
sg850
I15
sg851
I2
sg852
I21
sg180
I0
sg853
I9
sg141
I0
sg854
(I3
I1
tp1390
sg856
I8
sg857
I95
sg858
(lp1391
I1
asbaa(lp1392
(ibasic
Hero
p1393
(dp1394
g6
I8
sg850
I20
sg851
I6
sg852
I45
sg180
I0
sg853
I13
sg141
I0
sg854
(I1
I1
tp1395
sg856
I7
sg857
I95
sg858
(lp1396
I1
aI2
asba(ibasic
Base_Unit
p1397
(dp1398
g6
I1
sg850
I17
sg851
I4
sg852
I25
sg180
I0
sg853
I13
sg141
I0
sg854
(I4
I0
tp1399
sg856
I7
sg857
I90
sg858
(lp1400
I1
asba(ibasic
Base_Unit
p1401
(dp1402
g6
I2
sg850
I17
sg851
I3
sg852
I9
sg180
I0
sg853
I12
sg141
I0
sg854
g1361
sg856
I6
sg857
I90
sg858
g1387
sbaasg927
(I1
I2
tp1403
sg929
(lp1404
(lp1405
(I4
I0
tp1406
aI0
aasba(ibasic
Command
p1407
(dp1408
g935
(I4
I1
tp1409
sg937
I1
sg938
(I0
I0
tp1410
sba(ibasic
Round_End_Info
p1411
(dp1412
g942
I00
sg8
(lp1413
I0
aI0
asg944
(lp1414
(I3
I2
tp1415
a(I4
I2
tp1416
a(I4
I1
tp1417
asg901
(lp1418
(lp1419
(ibasic
Hero
p1420
(dp1421
g6
I7
sg850
I20
sg851
I6
sg852
I40
sg180
I0
sg853
I14
sg141
I0
sg854
(I2
I2
tp1422
sg856
I6
sg857
I100
sg858
(lp1423
I1
asba(ibasic
Base_Unit
p1424
(dp1425
g6
I2
sg850
I17
sg851
I3
sg852
I12
sg180
I0
sg853
I12
sg141
I0
sg854
(I3
I0
tp1426
sg856
I6
sg857
I90
sg858
(lp1427
I2
asba(ibasic
Base_Unit
p1428
(dp1429
g6
I3
sg850
I15
sg851
I2
sg852
I21
sg180
I0
sg853
I9
sg141
I0
sg854
(I3
I1
tp1430
sg856
I8
sg857
I95
sg858
(lp1431
I1
asbaa(lp1432
(ibasic
Hero
p1433
(dp1434
g6
I8
sg850
I20
sg851
I6
sg852
I45
sg180
I0
sg853
I13
sg141
I0
sg854
(I1
I1
tp1435
sg856
I7
sg857
I95
sg858
(lp1436
I1
aI2
asba(ibasic
Base_Unit
p1437
(dp1438
g6
I1
sg850
I17
sg851
I4
sg852
I25
sg180
I0
sg853
I13
sg141
I0
sg854
(I4
I0
tp1439
sg856
I7
sg857
I90
sg858
(lp1440
I1
asba(ibasic
Base_Unit
p1441
(dp1442
g6
I2
sg850
I17
sg851
I3
sg852
I9
sg180
I0
sg853
I12
sg141
I0
sg854
g1417
sg856
I6
sg857
I90
sg858
(lp1443
I2
aI3
aI4
aI5
aI6
aI7
aI8
aI9
aI10
asbaasg976
(I00
I-1
tp1444
sbaa(lp1445
(ibasic
Round_Begin_Info
p1446
(dp1447
g886
(lp1448
(I2
I2
tp1449
a(I3
I2
tp1450
a(I1
I2
tp1451
a(I2
I3
tp1452
a(I2
I1
tp1453
a(I4
I2
tp1454
a(I3
I3
tp1455
a(I2
I0
tp1456
a(I0
I2
tp1457
a(I1
I3
tp1458
a(I2
I4
tp1459
a(I1
I0
tp1460
a(I5
I2
tp1461
a(I4
I3
tp1462
a(I3
I4
tp1463
a(I0
I0
tp1464
asg901
(lp1465
(lp1466
(ibasic
Hero
p1467
(dp1468
g6
I7
sg850
I20
sg851
I6
sg852
I40
sg180
I0
sg853
I14
sg141
I0
sg854
g1449
sg856
I6
sg857
I100
sg858
(lp1469
I1
asba(ibasic
Base_Unit
p1470
(dp1471
g6
I2
sg850
I17
sg851
I3
sg852
I12
sg180
I0
sg853
I12
sg141
I0
sg854
(I3
I0
tp1472
sg856
I6
sg857
I90
sg858
(lp1473
I2
asba(ibasic
Base_Unit
p1474
(dp1475
g6
I3
sg850
I15
sg851
I2
sg852
I21
sg180
I0
sg853
I9
sg141
I0
sg854
(I3
I1
tp1476
sg856
I8
sg857
I95
sg858
(lp1477
I1
asbaa(lp1478
(ibasic
Hero
p1479
(dp1480
g6
I8
sg850
I20
sg851
I6
sg852
I45
sg180
I0
sg853
I13
sg141
I0
sg854
(I1
I1
tp1481
sg856
I7
sg857
I95
sg858
(lp1482
I1
aI2
asba(ibasic
Base_Unit
p1483
(dp1484
g6
I1
sg850
I17
sg851
I4
sg852
I25
sg180
I0
sg853
I13
sg141
I0
sg854
(I4
I0
tp1485
sg856
I7
sg857
I90
sg858
(lp1486
I1
asba(ibasic
Base_Unit
p1487
(dp1488
g6
I2
sg850
I17
sg851
I3
sg852
I9
sg180
I0
sg853
I12
sg141
I0
sg854
(I4
I1
tp1489
sg856
I6
sg857
I90
sg858
(lp1490
I2
aI3
aI4
aI5
aI6
aI7
aI8
aI9
aI10
asbaasg927
(I0
I0
tp1491
sg929
(lp1492
(lp1493
(I4
I0
tp1494
aI0
aasba(ibasic
Command
p1495
(dp1496
g935
(I4
I2
tp1497
sg937
I1
sg938
(I1
I2
tp1498
sba(ibasic
Round_End_Info
p1499
(dp1500
g942
I00
sg8
(lp1501
I0
aI0
asg944
(lp1502
(I2
I2
tp1503
a(I3
I2
tp1504
a(I4
I2
tp1505
asg901
(lp1506
(lp1507
(ibasic
Hero
p1508
(dp1509
g6
I7
sg850
I20
sg851
I6
sg852
I40
sg180
I0
sg853
I14
sg141
I0
sg854
g1505
sg856
I6
sg857
I100
sg858
(lp1510
I1
asba(ibasic
Base_Unit
p1511
(dp1512
g6
I2
sg850
I17
sg851
I3
sg852
I12
sg180
I0
sg853
I12
sg141
I0
sg854
(I3
I0
tp1513
sg856
I6
sg857
I90
sg858
(lp1514
I2
asba(ibasic
Base_Unit
p1515
(dp1516
g6
I3
sg850
I15
sg851
I2
sg852
I21
sg180
I0
sg853
I9
sg141
I0
sg854
(I3
I1
tp1517
sg856
I8
sg857
I95
sg858
(lp1518
I1
asbaa(lp1519
(ibasic
Hero
p1520
(dp1521
g6
I8
sg850
I20
sg851
I6
sg852
I45
sg180
I0
sg853
I13
sg141
I0
sg854
(I1
I1
tp1522
sg856
I7
sg857
I95
sg858
(lp1523
I1
aI2
asba(ibasic
Base_Unit
p1524
(dp1525
g6
I1
sg850
I17
sg851
I4
sg852
I25
sg180
I0
sg853
I13
sg141
I0
sg854
(I4
I0
tp1526
sg856
I7
sg857
I90
sg858
(lp1527
I1
asba(ibasic
Base_Unit
p1528
(dp1529
g6
I2
sg850
I17
sg851
I3
sg852
I1
sg180
I0
sg853
I12
sg141
I0
sg854
(I4
I1
tp1530
sg856
I6
sg857
I90
sg858
(lp1531
I2
aI3
aI4
aI5
aI6
aI7
aI8
aI9
aI10
asbaasg976
(I01
I-1
tp1532
sbaa(lp1533
(ibasic
Round_Begin_Info
p1534
(dp1535
g886
(lp1536
(I1
I1
tp1537
a(I2
I1
tp1538
a(I0
I1
tp1539
a(I1
I2
tp1540
a(I1
I0
tp1541
a(I2
I2
tp1542
a(I2
I0
tp1543
a(I0
I2
tp1544
a(I0
I0
tp1545
a(I1
I3
tp1546
a(I3
I2
tp1547
a(I2
I3
tp1548
a(I0
I3
tp1549
a(I3
I3
tp1550
a(I1
I4
tp1551
a(I2
I4
tp1552
a(I0
I4
tp1553
asg901
(lp1554
(lp1555
(ibasic
Hero
p1556
(dp1557
g6
I7
sg850
I20
sg851
I6
sg852
I40
sg180
I0
sg853
I14
sg141
I0
sg854
(I4
I2
tp1558
sg856
I6
sg857
I100
sg858
(lp1559
I1
asba(ibasic
Base_Unit
p1560
(dp1561
g6
I2
sg850
I17
sg851
I3
sg852
I12
sg180
I0
sg853
I12
sg141
I0
sg854
(I3
I0
tp1562
sg856
I6
sg857
I90
sg858
(lp1563
I2
asba(ibasic
Base_Unit
p1564
(dp1565
g6
I3
sg850
I15
sg851
I2
sg852
I21
sg180
I0
sg853
I9
sg141
I0
sg854
(I3
I1
tp1566
sg856
I8
sg857
I95
sg858
(lp1567
I1
asbaa(lp1568
(ibasic
Hero
p1569
(dp1570
g6
I8
sg850
I20
sg851
I6
sg852
I45
sg180
I0
sg853
I13
sg141
I0
sg854
g1537
sg856
I7
sg857
I95
sg858
(lp1571
I1
aI2
asba(ibasic
Base_Unit
p1572
(dp1573
g6
I1
sg850
I17
sg851
I4
sg852
I25
sg180
I0
sg853
I13
sg141
I0
sg854
(I4
I0
tp1574
sg856
I7
sg857
I90
sg858
(lp1575
I1
asba(ibasic
Base_Unit
p1576
(dp1577
g6
I2
sg850
I17
sg851
I3
sg852
I1
sg180
I0
sg853
I12
sg141
I0
sg854
(I4
I1
tp1578
sg856
I6
sg857
I90
sg858
(lp1579
I2
aI3
aI4
aI5
aI6
aI7
aI8
aI9
aI10
asbaasg927
(I1
I0
tp1580
sg929
(lp1581
(lp1582
(I4
I0
tp1583
aI0
aasba(ibasic
Command
p1584
(dp1585
g935
(I2
I0
tp1586
sg937
I1
sg938
(I0
I1
tp1587
sba(ibasic
Round_End_Info
p1588
(dp1589
g942
I00
sg8
(lp1590
I0
aI0
asg944
(lp1591
(I1
I1
tp1592
a(I1
I0
tp1593
a(I2
I0
tp1594
asg901
(lp1595
(lp1596
(ibasic
Hero
p1597
(dp1598
g6
I7
sg850
I20
sg851
I6
sg852
I40
sg180
I0
sg853
I14
sg141
I0
sg854
(I4
I2
tp1599
sg856
I6
sg857
I100
sg858
(lp1600
I1
asba(ibasic
Base_Unit
p1601
(dp1602
g6
I2
sg850
I17
sg851
I3
sg852
I4
sg180
I0
sg853
I12
sg141
I0
sg854
(I3
I0
tp1603
sg856
I6
sg857
I90
sg858
(lp1604
I2
asba(ibasic
Base_Unit
p1605
(dp1606
g6
I3
sg850
I15
sg851
I2
sg852
I21
sg180
I0
sg853
I9
sg141
I0
sg854
(I3
I1
tp1607
sg856
I8
sg857
I95
sg858
(lp1608
I1
asbaa(lp1609
(ibasic
Hero
p1610
(dp1611
g6
I8
sg850
I20
sg851
I6
sg852
I45
sg180
I0
sg853
I13
sg141
I0
sg854
g1594
sg856
I7
sg857
I95
sg858
(lp1612
I1
aI2
asba(ibasic
Base_Unit
p1613
(dp1614
g6
I1
sg850
I17
sg851
I4
sg852
I25
sg180
I0
sg853
I13
sg141
I0
sg854
(I4
I0
tp1615
sg856
I7
sg857
I90
sg858
(lp1616
I1
asba(ibasic
Base_Unit
p1617
(dp1618
g6
I2
sg850
I17
sg851
I3
sg852
I1
sg180
I0
sg853
I12
sg141
I0
sg854
(I4
I1
tp1619
sg856
I6
sg857
I90
sg858
(lp1620
I2
aI3
aI4
aI5
aI6
aI7
aI8
aI9
aI10
asbaasg976
(I01
I-1
tp1621
sbaa(lp1622
(ibasic
Round_Begin_Info
p1623
(dp1624
g886
(lp1625
(I3
I0
tp1626
a(I2
I1
tp1627
a(I3
I2
tp1628
a(I1
I1
tp1629
a(I2
I2
tp1630
a(I3
I3
tp1631
a(I0
I1
tp1632
a(I1
I2
tp1633
a(I1
I0
tp1634
a(I0
I2
tp1635
a(I0
I0
tp1636
a(I2
I3
tp1637
a(I5
I2
tp1638
a(I4
I3
tp1639
a(I3
I4
tp1640
asg901
(lp1641
(lp1642
(ibasic
Hero
p1643
(dp1644
g6
I7
sg850
I20
sg851
I6
sg852
I40
sg180
I0
sg853
I14
sg141
I0
sg854
(I4
I2
tp1645
sg856
I6
sg857
I100
sg858
(lp1646
I1
asba(ibasic
Base_Unit
p1647
(dp1648
g6
I2
sg850
I17
sg851
I3
sg852
I4
sg180
I0
sg853
I12
sg141
I0
sg854
g1626
sg856
I6
sg857
I90
sg858
(lp1649
I2
asba(ibasic
Base_Unit
p1650
(dp1651
g6
I3
sg850
I15
sg851
I2
sg852
I21
sg180
I0
sg853
I9
sg141
I0
sg854
(I3
I1
tp1652
sg856
I8
sg857
I95
sg858
(lp1653
I1
asbaa(lp1654
(ibasic
Hero
p1655
(dp1656
g6
I8
sg850
I20
sg851
I6
sg852
I45
sg180
I0
sg853
I13
sg141
I0
sg854
(I2
I0
tp1657
sg856
I7
sg857
I95
sg858
(lp1658
I1
aI2
asba(ibasic
Base_Unit
p1659
(dp1660
g6
I1
sg850
I17
sg851
I4
sg852
I25
sg180
I0
sg853
I13
sg141
I0
sg854
(I4
I0
tp1661
sg856
I7
sg857
I90
sg858
(lp1662
I1
asba(ibasic
Base_Unit
p1663
(dp1664
g6
I2
sg850
I17
sg851
I3
sg852
I1
sg180
I0
sg853
I12
sg141
I0
sg854
(I4
I1
tp1665
sg856
I6
sg857
I90
sg858
(lp1666
I2
aI3
aI4
aI5
aI6
aI7
aI8
aI9
aI10
asbaasg927
(I0
I1
tp1667
sg929
(lp1668
(lp1669
(I4
I0
tp1670
aI0
aasba(ibasic
Command
p1671
(dp1672
g935
(I3
I0
tp1673
sg937
I1
sg938
(I1
I2
tp1674
sba(ibasic
Round_End_Info
p1675
(dp1676
g942
I00
sg8
(lp1677
I0
aI0
asg944
(lp1678
(I3
I0
tp1679
asg901
(lp1680
(lp1681
(ibasic
Hero
p1682
(dp1683
g6
I7
sg850
I20
sg851
I6
sg852
I40
sg180
I0
sg853
I14
sg141
I0
sg854
(I4
I2
tp1684
sg856
I6
sg857
I100
sg858
(lp1685
I1
asba(ibasic
Base_Unit
p1686
(dp1687
g6
I2
sg850
I17
sg851
I3
sg852
I4
sg180
I0
sg853
I12
sg141
I0
sg854
(I3
I0
tp1688
sg856
I6
sg857
I90
sg858
(lp1689
I2
asba(ibasic
Base_Unit
p1690
(dp1691
g6
I3
sg850
I15
sg851
I2
sg852
I21
sg180
I0
sg853
I9
sg141
I0
sg854
(I3
I1
tp1692
sg856
I8
sg857
I95
sg858
(lp1693
I1
asbaa(lp1694
(ibasic
Hero
p1695
(dp1696
g6
I8
sg850
I20
sg851
I6
sg852
I45
sg180
I0
sg853
I13
sg141
I0
sg854
(I2
I0
tp1697
sg856
I7
sg857
I95
sg858
(lp1698
I1
aI2
asba(ibasic
Base_Unit
p1699
(dp1700
g6
I1
sg850
I17
sg851
I4
sg852
I25
sg180
I0
sg853
I13
sg141
I0
sg854
(I4
I0
tp1701
sg856
I7
sg857
I90
sg858
(lp1702
I1
asba(ibasic
Base_Unit
p1703
(dp1704
g6
I2
sg850
I17
sg851
I3
sg852
I-4
sg180
I0
sg853
I12
sg141
I0
sg854
(I4
I1
tp1705
sg856
I6
sg857
I90
sg858
(lp1706
I2
aI3
aI4
aI5
aI6
aI7
aI8
aI9
aI10
asbaasg976
(I01
I-1
tp1707
sbaa(lp1708
(ibasic
Round_Begin_Info
p1709
(dp1710
g886
(lp1711
(I4
I0
tp1712
a(I5
I0
tp1713
a(I4
I1
tp1714
a(I6
I0
tp1715
a(I5
I1
tp1716
a(I7
I0
tp1717
a(I6
I1
tp1718
a(I5
I2
tp1719
a(I8
I0
tp1720
a(I7
I1
tp1721
a(I6
I2
tp1722
a(I9
I0
tp1723
a(I8
I1
tp1724
a(I7
I2
tp1725
a(I5
I3
tp1726
a(I10
I0
tp1727
a(I9
I1
tp1728
a(I8
I2
tp1729
a(I6
I3
tp1730
asg901
(lp1731
(lp1732
(ibasic
Hero
p1733
(dp1734
g6
I7
sg850
I20
sg851
I6
sg852
I40
sg180
I0
sg853
I14
sg141
I0
sg854
(I4
I2
tp1735
sg856
I6
sg857
I100
sg858
(lp1736
I1
asba(ibasic
Base_Unit
p1737
(dp1738
g6
I2
sg850
I17
sg851
I3
sg852
I4
sg180
I0
sg853
I12
sg141
I0
sg854
(I3
I0
tp1739
sg856
I6
sg857
I90
sg858
(lp1740
I2
asba(ibasic
Base_Unit
p1741
(dp1742
g6
I3
sg850
I15
sg851
I2
sg852
I21
sg180
I0
sg853
I9
sg141
I0
sg854
(I3
I1
tp1743
sg856
I8
sg857
I95
sg858
(lp1744
I1
asbaa(lp1745
(ibasic
Hero
p1746
(dp1747
g6
I8
sg850
I20
sg851
I6
sg852
I45
sg180
I0
sg853
I13
sg141
I0
sg854
(I2
I0
tp1748
sg856
I7
sg857
I95
sg858
(lp1749
I1
aI2
asba(ibasic
Base_Unit
p1750
(dp1751
g6
I1
sg850
I17
sg851
I4
sg852
I25
sg180
I0
sg853
I13
sg141
I0
sg854
g1712
sg856
I7
sg857
I90
sg858
(lp1752
I1
asba(ibasic
Base_Unit
p1753
(dp1754
g6
I2
sg850
I17
sg851
I3
sg852
I-4
sg180
I0
sg853
I12
sg141
I0
sg854
(I4
I1
tp1755
sg856
I6
sg857
I90
sg858
(lp1756
I2
aI3
aI4
aI5
aI6
aI7
aI8
aI9
aI10
asbaasg927
(I1
I1
tp1757
sg929
(lp1758
(lp1759
(I4
I0
tp1760
aI0
aasba(ibasic
Command
p1761
(dp1762
g935
(I4
I0
tp1763
sg937
I1
sg938
(I0
I1
tp1764
sba(ibasic
Round_End_Info
p1765
(dp1766
g942
I00
sg8
(lp1767
I0
aI0
asg944
(lp1768
(I4
I0
tp1769
asg901
(lp1770
(lp1771
(ibasic
Hero
p1772
(dp1773
g6
I7
sg850
I20
sg851
I6
sg852
I40
sg180
I0
sg853
I14
sg141
I0
sg854
(I4
I2
tp1774
sg856
I6
sg857
I100
sg858
(lp1775
I1
asba(ibasic
Base_Unit
p1776
(dp1777
g6
I2
sg850
I17
sg851
I3
sg852
I-1
sg180
I0
sg853
I12
sg141
I0
sg854
(I3
I0
tp1778
sg856
I6
sg857
I90
sg858
(lp1779
I2
asba(ibasic
Base_Unit
p1780
(dp1781
g6
I3
sg850
I15
sg851
I2
sg852
I21
sg180
I0
sg853
I9
sg141
I0
sg854
(I3
I1
tp1782
sg856
I8
sg857
I95
sg858
(lp1783
I1
asbaa(lp1784
(ibasic
Hero
p1785
(dp1786
g6
I8
sg850
I20
sg851
I6
sg852
I45
sg180
I0
sg853
I13
sg141
I0
sg854
(I2
I0
tp1787
sg856
I7
sg857
I95
sg858
(lp1788
I1
aI2
asba(ibasic
Base_Unit
p1789
(dp1790
g6
I1
sg850
I17
sg851
I4
sg852
I25
sg180
I0
sg853
I13
sg141
I0
sg854
(I4
I0
tp1791
sg856
I7
sg857
I90
sg858
(lp1792
I1
asba(ibasic
Base_Unit
p1793
(dp1794
g6
I2
sg850
I17
sg851
I3
sg852
I-4
sg180
I0
sg853
I12
sg141
I0
sg854
(I4
I1
tp1795
sg856
I6
sg857
I90
sg858
(lp1796
I2
aI3
aI4
aI5
aI6
aI7
aI8
aI9
aI10
asbaasg976
(I01
I-1
tp1797
sbaa(lp1798
(ibasic
Round_Begin_Info
p1799
(dp1800
g886
(lp1801
(I3
I1
tp1802
a(I4
I1
tp1803
a(I2
I1
tp1804
a(I3
I2
tp1805
a(I3
I0
tp1806
a(I5
I1
tp1807
a(I1
I1
tp1808
a(I2
I2
tp1809
a(I3
I3
tp1810
a(I6
I1
tp1811
a(I5
I2
tp1812
a(I5
I0
tp1813
a(I0
I1
tp1814
a(I1
I2
tp1815
a(I1
I0
tp1816
a(I7
I1
tp1817
a(I6
I2
tp1818
a(I6
I0
tp1819
a(I4
I3
tp1820
a(I0
I2
tp1821
a(I0
I0
tp1822
a(I2
I3
tp1823
a(I3
I4
tp1824
a(I8
I1
tp1825
a(I7
I2
tp1826
a(I7
I0
tp1827
a(I5
I3
tp1828
a(I1
I3
tp1829
a(I9
I1
tp1830
a(I8
I2
tp1831
a(I8
I0
tp1832
a(I6
I3
tp1833
a(I4
I4
tp1834
a(I0
I3
tp1835
a(I2
I4
tp1836
a(I3
I5
tp1837
a(I10
I1
tp1838
a(I9
I2
tp1839
a(I9
I0
tp1840
a(I7
I3
tp1841
a(I5
I4
tp1842
a(I1
I4
tp1843
asg901
(lp1844
(lp1845
(ibasic
Hero
p1846
(dp1847
g6
I7
sg850
I20
sg851
I6
sg852
I40
sg180
I0
sg853
I14
sg141
I0
sg854
(I4
I2
tp1848
sg856
I6
sg857
I100
sg858
(lp1849
I1
asba(ibasic
Base_Unit
p1850
(dp1851
g6
I2
sg850
I17
sg851
I3
sg852
I-1
sg180
I0
sg853
I12
sg141
I0
sg854
(I3
I0
tp1852
sg856
I6
sg857
I90
sg858
(lp1853
I2
asba(ibasic
Base_Unit
p1854
(dp1855
g6
I3
sg850
I15
sg851
I2
sg852
I21
sg180
I0
sg853
I9
sg141
I0
sg854
g1802
sg856
I8
sg857
I95
sg858
(lp1856
I1
asbaa(lp1857
(ibasic
Hero
p1858
(dp1859
g6
I8
sg850
I20
sg851
I6
sg852
I45
sg180
I0
sg853
I13
sg141
I0
sg854
(I2
I0
tp1860
sg856
I7
sg857
I95
sg858
(lp1861
I1
aI2
asba(ibasic
Base_Unit
p1862
(dp1863
g6
I1
sg850
I17
sg851
I4
sg852
I25
sg180
I0
sg853
I13
sg141
I0
sg854
(I4
I0
tp1864
sg856
I7
sg857
I90
sg858
(lp1865
I1
asba(ibasic
Base_Unit
p1866
(dp1867
g6
I2
sg850
I17
sg851
I3
sg852
I-4
sg180
I0
sg853
I12
sg141
I0
sg854
(I4
I1
tp1868
sg856
I6
sg857
I90
sg858
(lp1869
I2
aI3
aI4
aI5
aI6
aI7
aI8
aI9
aI10
asbaasg927
(I0
I2
tp1870
sg929
(lp1871
(lp1872
(I4
I0
tp1873
aI0
aasba(ibasic
Command
p1874
(dp1875
g935
(I4
I1
tp1876
sg937
I1
sg938
(I1
I1
tp1877
sba(ibasic
Round_End_Info
p1878
(dp1879
g942
I00
sg8
(lp1880
I0
aI0
asg944
(lp1881
(I3
I1
tp1882
a(I4
I1
tp1883
asg901
(lp1884
(lp1885
(ibasic
Hero
p1886
(dp1887
g6
I7
sg850
I20
sg851
I6
sg852
I40
sg180
I0
sg853
I14
sg141
I0
sg854
(I4
I2
tp1888
sg856
I6
sg857
I100
sg858
(lp1889
I1
asba(ibasic
Base_Unit
p1890
(dp1891
g6
I2
sg850
I17
sg851
I3
sg852
I-1
sg180
I0
sg853
I12
sg141
I0
sg854
(I3
I0
tp1892
sg856
I6
sg857
I90
sg858
(lp1893
I2
asba(ibasic
Base_Unit
p1894
(dp1895
g6
I3
sg850
I15
sg851
I2
sg852
I13
sg180
I0
sg853
I9
sg141
I0
sg854
g1883
sg856
I8
sg857
I95
sg858
(lp1896
I1
asbaa(lp1897
(ibasic
Hero
p1898
(dp1899
g6
I8
sg850
I20
sg851
I6
sg852
I45
sg180
I0
sg853
I13
sg141
I0
sg854
(I2
I0
tp1900
sg856
I7
sg857
I95
sg858
(lp1901
I1
aI2
asba(ibasic
Base_Unit
p1902
(dp1903
g6
I1
sg850
I17
sg851
I4
sg852
I23
sg180
I0
sg853
I13
sg141
I0
sg854
(I4
I0
tp1904
sg856
I7
sg857
I90
sg858
(lp1905
I1
asba(ibasic
Base_Unit
p1906
(dp1907
g6
I2
sg850
I17
sg851
I3
sg852
I-4
sg180
I0
sg853
I12
sg141
I0
sg854
(I4
I1
tp1908
sg856
I6
sg857
I90
sg858
(lp1909
I2
aI3
aI4
aI5
aI6
aI7
aI8
aI9
aI10
asbaasg976
(I01
I01
tp1910
sbaa(lp1911
(ibasic
Round_Begin_Info
p1912
(dp1913
g886
(lp1914
(I4
I2
tp1915
a(I5
I2
tp1916
a(I3
I2
tp1917
a(I4
I3
tp1918
a(I2
I2
tp1919
a(I3
I3
tp1920
a(I3
I1
tp1921
a(I5
I1
tp1922
a(I6
I2
tp1923
a(I5
I3
tp1924
a(I2
I1
tp1925
a(I3
I0
tp1926
a(I4
I4
tp1927
a(I6
I1
tp1928
a(I5
I0
tp1929
a(I1
I2
tp1930
a(I2
I3
tp1931
a(I3
I4
tp1932
a(I1
I1
tp1933
a(I7
I1
tp1934
a(I6
I0
tp1935
asg901
(lp1936
(lp1937
(ibasic
Hero
p1938
(dp1939
g6
I7
sg850
I20
sg851
I6
sg852
I40
sg180
I0
sg853
I14
sg141
I0
sg854
g1915
sg856
I6
sg857
I100
sg858
(lp1940
I1
asba(ibasic
Base_Unit
p1941
(dp1942
g6
I2
sg850
I17
sg851
I3
sg852
I-1
sg180
I0
sg853
I12
sg141
I0
sg854
(I3
I0
tp1943
sg856
I6
sg857
I90
sg858
(lp1944
I2
asba(ibasic
Base_Unit
p1945
(dp1946
g6
I3
sg850
I15
sg851
I2
sg852
I13
sg180
I0
sg853
I9
sg141
I0
sg854
(I4
I1
tp1947
sg856
I8
sg857
I95
sg858
(lp1948
I1
asbaa(lp1949
(ibasic
Hero
p1950
(dp1951
g6
I8
sg850
I20
sg851
I6
sg852
I45
sg180
I0
sg853
I13
sg141
I0
sg854
(I2
I0
tp1952
sg856
I7
sg857
I95
sg858
(lp1953
I1
aI2
asba(ibasic
Base_Unit
p1954
(dp1955
g6
I1
sg850
I17
sg851
I4
sg852
I23
sg180
I0
sg853
I13
sg141
I0
sg854
(I4
I0
tp1956
sg856
I7
sg857
I90
sg858
(lp1957
I1
asba(ibasic
Base_Unit
p1958
(dp1959
g6
I2
sg850
I17
sg851
I3
sg852
I-4
sg180
I0
sg853
I12
sg141
I0
sg854
(I4
I1
tp1960
sg856
I6
sg857
I90
sg858
(lp1961
I2
aI3
aI4
aI5
aI6
aI7
aI8
aI9
aI10
asbaasg927
(I0
I0
tp1962
sg929
(lp1963
(lp1964
(I4
I0
tp1965
aI0
aasba(ibasic
Command
p1966
(dp1967
g935
(I2
I1
tp1968
sg937
I1
sg938
(I1
I0
tp1969
sba(ibasic
Round_End_Info
p1970
(dp1971
g942
I00
sg8
(lp1972
I0
aI0
asg944
(lp1973
(I4
I2
tp1974
a(I4
I1
tp1975
a(I3
I1
tp1976
a(I2
I1
tp1977
asg901
(lp1978
(lp1979
(ibasic
Hero
p1980
(dp1981
g6
I7
sg850
I20
sg851
I6
sg852
I33
sg180
I0
sg853
I13
sg141
I0
sg854
g1977
sg856
I6
sg857
I100
sg858
(lp1982
I1
asba(ibasic
Base_Unit
p1983
(dp1984
g6
I2
sg850
I17
sg851
I3
sg852
I-1
sg180
I0
sg853
I12
sg141
I0
sg854
(I3
I0
tp1985
sg856
I6
sg857
I90
sg858
(lp1986
I2
asba(ibasic
Base_Unit
p1987
(dp1988
g6
I3
sg850
I15
sg851
I2
sg852
I13
sg180
I0
sg853
I9
sg141
I0
sg854
(I4
I1
tp1989
sg856
I8
sg857
I95
sg858
(lp1990
I1
asbaa(lp1991
(ibasic
Hero
p1992
(dp1993
g6
I8
sg850
I20
sg851
I6
sg852
I38
sg180
I0
sg853
I13
sg141
I0
sg854
(I2
I0
tp1994
sg856
I7
sg857
I95
sg858
(lp1995
I1
aI2
asba(ibasic
Base_Unit
p1996
(dp1997
g6
I1
sg850
I17
sg851
I4
sg852
I23
sg180
I0
sg853
I13
sg141
I0
sg854
(I4
I0
tp1998
sg856
I7
sg857
I90
sg858
(lp1999
I1
asba(ibasic
Base_Unit
p2000
(dp2001
g6
I2
sg850
I17
sg851
I3
sg852
I-4
sg180
I0
sg853
I12
sg141
I0
sg854
(I4
I1
tp2002
sg856
I6
sg857
I90
sg858
(lp2003
I2
aI3
aI4
aI5
aI6
aI7
aI8
aI9
aI10
asbaasg976
(I01
I01
tp2004
sbaa(lp2005
(ibasic
Round_Begin_Info
p2006
(dp2007
g886
(lp2008
(I2
I0
tp2009
a(I3
I0
tp2010
a(I1
I0
tp2011
a(I3
I1
tp2012
a(I0
I0
tp2013
a(I1
I1
tp2014
a(I5
I0
tp2015
a(I3
I2
tp2016
a(I0
I1
tp2017
a(I1
I2
tp2018
a(I6
I0
tp2019
a(I5
I1
tp2020
a(I4
I2
tp2021
a(I2
I2
tp2022
a(I3
I3
tp2023
a(I0
I2
tp2024
a(I7
I0
tp2025
a(I6
I1
tp2026
a(I5
I2
tp2027
a(I1
I3
tp2028
a(I8
I0
tp2029
a(I7
I1
tp2030
a(I6
I2
tp2031
a(I4
I3
tp2032
a(I2
I3
tp2033
a(I3
I4
tp2034
a(I0
I3
tp2035
asg901
(lp2036
(lp2037
(ibasic
Hero
p2038
(dp2039
g6
I7
sg850
I20
sg851
I6
sg852
I33
sg180
I0
sg853
I13
sg141
I0
sg854
(I2
I1
tp2040
sg856
I6
sg857
I100
sg858
(lp2041
I1
asba(ibasic
Base_Unit
p2042
(dp2043
g6
I2
sg850
I17
sg851
I3
sg852
I-1
sg180
I0
sg853
I12
sg141
I0
sg854
(I3
I0
tp2044
sg856
I6
sg857
I90
sg858
(lp2045
I2
asba(ibasic
Base_Unit
p2046
(dp2047
g6
I3
sg850
I15
sg851
I2
sg852
I13
sg180
I0
sg853
I9
sg141
I0
sg854
(I4
I1
tp2048
sg856
I8
sg857
I95
sg858
(lp2049
I1
asbaa(lp2050
(ibasic
Hero
p2051
(dp2052
g6
I8
sg850
I20
sg851
I6
sg852
I38
sg180
I0
sg853
I13
sg141
I0
sg854
g2009
sg856
I7
sg857
I95
sg858
(lp2053
I1
aI2
asba(ibasic
Base_Unit
p2054
(dp2055
g6
I1
sg850
I17
sg851
I4
sg852
I23
sg180
I0
sg853
I13
sg141
I0
sg854
(I4
I0
tp2056
sg856
I7
sg857
I90
sg858
(lp2057
I1
asba(ibasic
Base_Unit
p2058
(dp2059
g6
I2
sg850
I17
sg851
I3
sg852
I-4
sg180
I0
sg853
I12
sg141
I0
sg854
(I4
I1
tp2060
sg856
I6
sg857
I90
sg858
(lp2061
I2
aI3
aI4
aI5
aI6
aI7
aI8
aI9
aI10
asbaasg927
(I1
I0
tp2062
sg929
(lp2063
(lp2064
(I4
I0
tp2065
aI0
aasba(ibasic
Command
p2066
(dp2067
g935
(I5
I1
tp2068
sg937
I1
sg938
(I0
I2
tp2069
sba(ibasic
Round_End_Info
p2070
(dp2071
g942
I00
sg8
(lp2072
I0
aI0
asg944
(lp2073
(I2
I0
tp2074
a(I3
I0
tp2075
a(I4
I0
tp2076
a(I5
I0
tp2077
a(I5
I1
tp2078
asg901
(lp2079
(lp2080
(ibasic
Hero
p2081
(dp2082
g6
I7
sg850
I20
sg851
I6
sg852
I33
sg180
I0
sg853
I13
sg141
I0
sg854
(I2
I1
tp2083
sg856
I6
sg857
I100
sg858
(lp2084
I1
asba(ibasic
Base_Unit
p2085
(dp2086
g6
I2
sg850
I17
sg851
I3
sg852
I-1
sg180
I0
sg853
I12
sg141
I0
sg854
(I3
I0
tp2087
sg856
I6
sg857
I90
sg858
(lp2088
I2
asba(ibasic
Base_Unit
p2089
(dp2090
g6
I3
sg850
I15
sg851
I2
sg852
I13
sg180
I0
sg853
I9
sg141
I0
sg854
(I4
I1
tp2091
sg856
I8
sg857
I95
sg858
(lp2092
I1
asbaa(lp2093
(ibasic
Hero
p2094
(dp2095
g6
I8
sg850
I20
sg851
I6
sg852
I36
sg180
I0
sg853
I13
sg141
I0
sg854
g2078
sg856
I7
sg857
I95
sg858
(lp2096
I1
aI2
asba(ibasic
Base_Unit
p2097
(dp2098
g6
I1
sg850
I17
sg851
I4
sg852
I23
sg180
I0
sg853
I13
sg141
I0
sg854
(I4
I0
tp2099
sg856
I7
sg857
I90
sg858
(lp2100
I1
asba(ibasic
Base_Unit
p2101
(dp2102
g6
I2
sg850
I17
sg851
I3
sg852
I-4
sg180
I0
sg853
I12
sg141
I0
sg854
(I4
I1
tp2103
sg856
I6
sg857
I90
sg858
(lp2104
I2
aI3
aI4
aI5
aI6
aI7
aI8
aI9
aI10
asbaasg976
(I00
I01
tp2105
sbaa(lp2106
(ibasic
Round_Begin_Info
p2107
(dp2108
g886
(lp2109
(I4
I0
tp2110
a(I5
I0
tp2111
a(I3
I0
tp2112
a(I6
I0
tp2113
a(I2
I0
tp2114
a(I3
I1
tp2115
a(I7
I0
tp2116
a(I6
I1
tp2117
a(I5
I2
tp2118
a(I1
I0
tp2119
a(I3
I2
tp2120
a(I8
I0
tp2121
a(I7
I1
tp2122
a(I6
I2
tp2123
a(I0
I0
tp2124
a(I1
I1
tp2125
a(I4
I2
tp2126
a(I2
I2
tp2127
a(I3
I3
tp2128
a(I9
I0
tp2129
a(I8
I1
tp2130
a(I7
I2
tp2131
a(I5
I3
tp2132
a(I0
I1
tp2133
a(I1
I2
tp2134
a(I10
I0
tp2135
a(I9
I1
tp2136
a(I8
I2
tp2137
a(I6
I3
tp2138
a(I0
I2
tp2139
a(I4
I3
tp2140
a(I2
I3
tp2141
a(I3
I4
tp2142
asg901
(lp2143
(lp2144
(ibasic
Hero
p2145
(dp2146
g6
I7
sg850
I20
sg851
I6
sg852
I33
sg180
I0
sg853
I13
sg141
I0
sg854
(I2
I1
tp2147
sg856
I6
sg857
I100
sg858
(lp2148
I1
asba(ibasic
Base_Unit
p2149
(dp2150
g6
I2
sg850
I17
sg851
I3
sg852
I-1
sg180
I0
sg853
I12
sg141
I0
sg854
(I3
I0
tp2151
sg856
I6
sg857
I90
sg858
(lp2152
I2
asba(ibasic
Base_Unit
p2153
(dp2154
g6
I3
sg850
I15
sg851
I2
sg852
I13
sg180
I0
sg853
I9
sg141
I0
sg854
(I4
I1
tp2155
sg856
I8
sg857
I95
sg858
(lp2156
I1
asbaa(lp2157
(ibasic
Hero
p2158
(dp2159
g6
I8
sg850
I20
sg851
I6
sg852
I36
sg180
I0
sg853
I13
sg141
I0
sg854
(I5
I1
tp2160
sg856
I7
sg857
I95
sg858
(lp2161
I1
aI2
asba(ibasic
Base_Unit
p2162
(dp2163
g6
I1
sg850
I17
sg851
I4
sg852
I23
sg180
I0
sg853
I13
sg141
I0
sg854
g2110
sg856
I7
sg857
I90
sg858
(lp2164
I1
asba(ibasic
Base_Unit
p2165
(dp2166
g6
I2
sg850
I17
sg851
I3
sg852
I-4
sg180
I0
sg853
I12
sg141
I0
sg854
(I4
I1
tp2167
sg856
I6
sg857
I90
sg858
(lp2168
I2
aI3
aI4
aI5
aI6
aI7
aI8
aI9
aI10
asbaasg927
(I1
I1
tp2169
sg929
(lp2170
(lp2171
(I4
I0
tp2172
aI0
aasba(ibasic
Command
p2173
(dp2174
g935
(I4
I0
tp2175
sg937
I1
sg938
(I0
I2
tp2176
sba(ibasic
Round_End_Info
p2177
(dp2178
g942
I00
sg8
(lp2179
I0
aI0
asg944
(lp2180
(I4
I0
tp2181
asg901
(lp2182
(lp2183
(ibasic
Hero
p2184
(dp2185
g6
I7
sg850
I20
sg851
I6
sg852
I33
sg180
I0
sg853
I13
sg141
I0
sg854
(I2
I1
tp2186
sg856
I6
sg857
I100
sg858
(lp2187
I1
asba(ibasic
Base_Unit
p2188
(dp2189
g6
I2
sg850
I17
sg851
I3
sg852
I-1
sg180
I0
sg853
I12
sg141
I0
sg854
(I3
I0
tp2190
sg856
I6
sg857
I90
sg858
(lp2191
I2
asba(ibasic
Base_Unit
p2192
(dp2193
g6
I3
sg850
I15
sg851
I2
sg852
I5
sg180
I0
sg853
I9
sg141
I0
sg854
(I4
I1
tp2194
sg856
I8
sg857
I95
sg858
(lp2195
I1
asbaa(lp2196
(ibasic
Hero
p2197
(dp2198
g6
I8
sg850
I20
sg851
I6
sg852
I36
sg180
I0
sg853
I13
sg141
I0
sg854
(I5
I1
tp2199
sg856
I7
sg857
I95
sg858
(lp2200
I1
aI2
asba(ibasic
Base_Unit
p2201
(dp2202
g6
I1
sg850
I17
sg851
I4
sg852
I21
sg180
I0
sg853
I13
sg141
I0
sg854
(I4
I0
tp2203
sg856
I7
sg857
I90
sg858
(lp2204
I1
asba(ibasic
Base_Unit
p2205
(dp2206
g6
I2
sg850
I17
sg851
I3
sg852
I-4
sg180
I0
sg853
I12
sg141
I0
sg854
(I4
I1
tp2207
sg856
I6
sg857
I90
sg858
(lp2208
I2
aI3
aI4
aI5
aI6
aI7
aI8
aI9
aI10
asbaasg976
(I01
I01
tp2209
sbaa(lp2210
(ibasic
Round_Begin_Info
p2211
(dp2212
g886
(lp2213
(I4
I1
tp2214
a(I3
I1
tp2215
a(I4
I2
tp2216
a(I6
I1
tp2217
a(I5
I2
tp2218
a(I5
I0
tp2219
a(I3
I2
tp2220
a(I3
I0
tp2221
a(I7
I1
tp2222
a(I6
I2
tp2223
a(I6
I0
tp2224
a(I1
I1
tp2225
a(I2
I2
tp2226
a(I2
I0
tp2227
a(I3
I3
tp2228
a(I4
I3
tp2229
a(I8
I1
tp2230
a(I7
I2
tp2231
a(I7
I0
tp2232
a(I5
I3
tp2233
a(I0
I1
tp2234
a(I1
I2
tp2235
a(I1
I0
tp2236
a(I9
I1
tp2237
a(I8
I2
tp2238
a(I8
I0
tp2239
a(I6
I3
tp2240
a(I0
I2
tp2241
a(I0
I0
tp2242
a(I2
I3
tp2243
a(I3
I4
tp2244
a(I4
I4
tp2245
a(I10
I1
tp2246
a(I9
I2
tp2247
a(I9
I0
tp2248
a(I7
I3
tp2249
a(I5
I4
tp2250
a(I1
I3
tp2251
a(I11
I1
tp2252
a(I10
I2
tp2253
a(I10
I0
tp2254
a(I8
I3
tp2255
a(I6
I4
tp2256
a(I0
I3
tp2257
a(I2
I4
tp2258
a(I3
I5
tp2259
a(I4
I5
tp2260
asg901
(lp2261
(lp2262
(ibasic
Hero
p2263
(dp2264
g6
I7
sg850
I20
sg851
I6
sg852
I33
sg180
I0
sg853
I13
sg141
I0
sg854
(I2
I1
tp2265
sg856
I6
sg857
I100
sg858
(lp2266
I1
asba(ibasic
Base_Unit
p2267
(dp2268
g6
I2
sg850
I17
sg851
I3
sg852
I-1
sg180
I0
sg853
I12
sg141
I0
sg854
(I3
I0
tp2269
sg856
I6
sg857
I90
sg858
(lp2270
I2
asba(ibasic
Base_Unit
p2271
(dp2272
g6
I3
sg850
I15
sg851
I2
sg852
I5
sg180
I0
sg853
I9
sg141
I0
sg854
g2214
sg856
I8
sg857
I95
sg858
(lp2273
I1
asbaa(lp2274
(ibasic
Hero
p2275
(dp2276
g6
I8
sg850
I20
sg851
I6
sg852
I36
sg180
I0
sg853
I13
sg141
I0
sg854
(I5
I1
tp2277
sg856
I7
sg857
I95
sg858
(lp2278
I1
aI2
asba(ibasic
Base_Unit
p2279
(dp2280
g6
I1
sg850
I17
sg851
I4
sg852
I21
sg180
I0
sg853
I13
sg141
I0
sg854
(I4
I0
tp2281
sg856
I7
sg857
I90
sg858
(lp2282
I1
asba(ibasic
Base_Unit
p2283
(dp2284
g6
I2
sg850
I17
sg851
I3
sg852
I-4
sg180
I0
sg853
I12
sg141
I0
sg854
(I4
I1
tp2285
sg856
I6
sg857
I90
sg858
(lp2286
I2
aI3
aI4
aI5
aI6
aI7
aI8
aI9
aI10
asbaasg927
(I0
I2
tp2287
sg929
(lp2288
(lp2289
(I4
I0
tp2290
aI0
aasba(ibasic
Command
p2291
(dp2292
g935
(I4
I1
tp2293
sg937
I1
sg938
(I1
I0
tp2294
sba(ibasic
Round_End_Info
p2295
(dp2296
g942
I00
sg8
(lp2297
I0
aI0
asg944
(lp2298
(I4
I1
tp2299
asg901
(lp2300
(lp2301
(ibasic
Hero
p2302
(dp2303
g6
I7
sg850
I20
sg851
I6
sg852
I33
sg180
I0
sg853
I13
sg141
I0
sg854
(I2
I1
tp2304
sg856
I6
sg857
I100
sg858
(lp2305
I1
asba(ibasic
Base_Unit
p2306
(dp2307
g6
I2
sg850
I17
sg851
I3
sg852
I-1
sg180
I0
sg853
I12
sg141
I0
sg854
(I3
I0
tp2308
sg856
I6
sg857
I90
sg858
(lp2309
I2
asba(ibasic
Base_Unit
p2310
(dp2311
g6
I3
sg850
I15
sg851
I2
sg852
I-6
sg180
I0
sg853
I9
sg141
I0
sg854
(I4
I1
tp2312
sg856
I8
sg857
I95
sg858
(lp2313
I1
asbaa(lp2314
(ibasic
Hero
p2315
(dp2316
g6
I8
sg850
I20
sg851
I6
sg852
I34
sg180
I0
sg853
I13
sg141
I0
sg854
(I5
I1
tp2317
sg856
I7
sg857
I95
sg858
(lp2318
I1
aI2
asba(ibasic
Base_Unit
p2319
(dp2320
g6
I1
sg850
I17
sg851
I4
sg852
I21
sg180
I0
sg853
I13
sg141
I0
sg854
(I4
I0
tp2321
sg856
I7
sg857
I90
sg858
(lp2322
I1
asba(ibasic
Base_Unit
p2323
(dp2324
g6
I2
sg850
I17
sg851
I3
sg852
I-4
sg180
I0
sg853
I12
sg141
I0
sg854
(I4
I1
tp2325
sg856
I6
sg857
I90
sg858
(lp2326
I2
aI3
aI4
aI5
aI6
aI7
aI8
aI9
aI10
asbaasg976
(I01
I01
tp2327
sbaa(lp2328
(ibasic
Round_Begin_Info
p2329
(dp2330
g886
(lp2331
(I2
I1
tp2332
a(I3
I1
tp2333
a(I1
I1
tp2334
a(I2
I2
tp2335
a(I2
I0
tp2336
a(I4
I1
tp2337
a(I3
I2
tp2338
a(I3
I0
tp2339
a(I0
I1
tp2340
a(I1
I2
tp2341
a(I1
I0
tp2342
a(I4
I2
tp2343
a(I3
I3
tp2344
a(I0
I2
tp2345
a(I0
I0
tp2346
a(I2
I3
tp2347
a(I1
I3
tp2348
a(I5
I2
tp2349
a(I4
I3
tp2350
a(I3
I4
tp2351
a(I0
I3
tp2352
a(I2
I4
tp2353
asg901
(lp2354
(lp2355
(ibasic
Hero
p2356
(dp2357
g6
I7
sg850
I20
sg851
I6
sg852
I33
sg180
I0
sg853
I13
sg141
I0
sg854
g2332
sg856
I6
sg857
I100
sg858
(lp2358
I1
asba(ibasic
Base_Unit
p2359
(dp2360
g6
I2
sg850
I17
sg851
I3
sg852
I-1
sg180
I0
sg853
I12
sg141
I0
sg854
(I3
I0
tp2361
sg856
I6
sg857
I90
sg858
(lp2362
I2
asba(ibasic
Base_Unit
p2363
(dp2364
g6
I3
sg850
I15
sg851
I2
sg852
I-6
sg180
I0
sg853
I9
sg141
I0
sg854
(I4
I1
tp2365
sg856
I8
sg857
I95
sg858
(lp2366
I1
asbaa(lp2367
(ibasic
Hero
p2368
(dp2369
g6
I8
sg850
I20
sg851
I6
sg852
I34
sg180
I0
sg853
I13
sg141
I0
sg854
(I5
I1
tp2370
sg856
I7
sg857
I95
sg858
(lp2371
I1
aI2
asba(ibasic
Base_Unit
p2372
(dp2373
g6
I1
sg850
I17
sg851
I4
sg852
I21
sg180
I0
sg853
I13
sg141
I0
sg854
(I4
I0
tp2374
sg856
I7
sg857
I90
sg858
(lp2375
I1
asba(ibasic
Base_Unit
p2376
(dp2377
g6
I2
sg850
I17
sg851
I3
sg852
I-4
sg180
I0
sg853
I12
sg141
I0
sg854
(I4
I1
tp2378
sg856
I6
sg857
I90
sg858
(lp2379
I2
aI3
aI4
aI5
aI6
aI7
aI8
aI9
aI10
asbaasg927
(I0
I0
tp2380
sg929
(lp2381
(lp2382
(I4
I0
tp2383
aI0
aasba(ibasic
Command
p2384
(dp2385
g935
(I4
I1
tp2386
sg937
I1
sg938
(I1
I0
tp2387
sba(ibasic
Round_End_Info
p2388
(dp2389
g942
I00
sg8
(lp2390
I0
aI2
asg944
(lp2391
(I2
I1
tp2392
a(I3
I1
tp2393
a(I4
I1
tp2394
asg901
(lp2395
(lp2396
(ibasic
Hero
p2397
(dp2398
g6
I7
sg850
I20
sg851
I6
sg852
I26
sg180
I0
sg853
I13
sg141
I0
sg854
g2394
sg856
I6
sg857
I100
sg858
(lp2399
I1
asba(ibasic
Base_Unit
p2400
(dp2401
g6
I2
sg850
I17
sg851
I3
sg852
I-1
sg180
I0
sg853
I12
sg141
I0
sg854
(I3
I0
tp2402
sg856
I6
sg857
I90
sg858
(lp2403
I2
asba(ibasic
Base_Unit
p2404
(dp2405
g6
I3
sg850
I15
sg851
I2
sg852
I-6
sg180
I0
sg853
I9
sg141
I0
sg854
(I4
I1
tp2406
sg856
I8
sg857
I95
sg858
(lp2407
I1
asbaa(lp2408
(ibasic
Hero
p2409
(dp2410
g6
I8
sg850
I20
sg851
I6
sg852
I27
sg180
I0
sg853
I13
sg141
I0
sg854
(I5
I1
tp2411
sg856
I7
sg857
I95
sg858
(lp2412
I1
aI2
asba(ibasic
Base_Unit
p2413
(dp2414
g6
I1
sg850
I17
sg851
I4
sg852
I21
sg180
I0
sg853
I13
sg141
I0
sg854
(I4
I0
tp2415
sg856
I7
sg857
I90
sg858
(lp2416
I1
asba(ibasic
Base_Unit
p2417
(dp2418
g6
I2
sg850
I17
sg851
I3
sg852
I-4
sg180
I0
sg853
I12
sg141
I0
sg854
(I4
I1
tp2419
sg856
I6
sg857
I90
sg858
(lp2420
I2
aI3
aI4
aI5
aI6
aI7
aI8
aI9
aI10
asbaasg976
(I01
I01
tp2421
sbaa(lp2422
(ibasic
Round_Begin_Info
p2423
(dp2424
g886
(lp2425
(I5
I1
tp2426
a(I6
I1
tp2427
a(I5
I2
tp2428
a(I5
I0
tp2429
a(I7
I1
tp2430
a(I6
I2
tp2431
a(I6
I0
tp2432
a(I8
I1
tp2433
a(I7
I2
tp2434
a(I7
I0
tp2435
a(I4
I2
tp2436
a(I5
I3
tp2437
a(I3
I0
tp2438
a(I9
I1
tp2439
a(I8
I2
tp2440
a(I8
I0
tp2441
a(I6
I3
tp2442
a(I2
I0
tp2443
a(I3
I1
tp2444
a(I10
I1
tp2445
a(I9
I2
tp2446
a(I9
I0
tp2447
a(I7
I3
tp2448
a(I3
I2
tp2449
a(I4
I3
tp2450
a(I5
I4
tp2451
a(I1
I0
tp2452
a(I2
I1
tp2453
a(I11
I1
tp2454
a(I10
I2
tp2455
a(I10
I0
tp2456
a(I8
I3
tp2457
a(I6
I4
tp2458
a(I2
I2
tp2459
a(I3
I3
tp2460
a(I0
I0
tp2461
a(I1
I1
tp2462
asg901
(lp2463
(lp2464
(ibasic
Hero
p2465
(dp2466
g6
I7
sg850
I20
sg851
I6
sg852
I26
sg180
I0
sg853
I13
sg141
I0
sg854
(I4
I1
tp2467
sg856
I6
sg857
I100
sg858
(lp2468
I1
asba(ibasic
Base_Unit
p2469
(dp2470
g6
I2
sg850
I17
sg851
I3
sg852
I-1
sg180
I0
sg853
I12
sg141
I0
sg854
(I3
I0
tp2471
sg856
I6
sg857
I90
sg858
(lp2472
I2
asba(ibasic
Base_Unit
p2473
(dp2474
g6
I3
sg850
I15
sg851
I2
sg852
I-6
sg180
I0
sg853
I9
sg141
I0
sg854
(I4
I1
tp2475
sg856
I8
sg857
I95
sg858
(lp2476
I1
asbaa(lp2477
(ibasic
Hero
p2478
(dp2479
g6
I8
sg850
I20
sg851
I6
sg852
I27
sg180
I0
sg853
I13
sg141
I0
sg854
g2426
sg856
I7
sg857
I95
sg858
(lp2480
I1
aI2
asba(ibasic
Base_Unit
p2481
(dp2482
g6
I1
sg850
I17
sg851
I4
sg852
I21
sg180
I0
sg853
I13
sg141
I0
sg854
(I4
I0
tp2483
sg856
I7
sg857
I90
sg858
(lp2484
I1
asba(ibasic
Base_Unit
p2485
(dp2486
g6
I2
sg850
I17
sg851
I3
sg852
I-4
sg180
I0
sg853
I12
sg141
I0
sg854
(I4
I1
tp2487
sg856
I6
sg857
I90
sg858
(lp2488
I2
aI3
aI4
aI5
aI6
aI7
aI8
aI9
aI10
asbaasg927
(I1
I0
tp2489
sg929
(lp2490
(lp2491
(I4
I0
tp2492
aI0
aasba(ibasic
Command
p2493
(dp2494
g935
(I5
I1
tp2495
sg937
I1
sg938
(I0
I0
tp2496
sba(ibasic
Round_End_Info
p2497
(dp2498
g942
I00
sg8
(lp2499
I0
aI2
asg944
(lp2500
(I5
I1
tp2501
asg901
(lp2502
(lp2503
(ibasic
Hero
p2504
(dp2505
g6
I7
sg850
I20
sg851
I6
sg852
I19
sg180
I0
sg853
I13
sg141
I0
sg854
(I4
I1
tp2506
sg856
I6
sg857
I100
sg858
(lp2507
I1
asba(ibasic
Base_Unit
p2508
(dp2509
g6
I2
sg850
I17
sg851
I3
sg852
I-1
sg180
I0
sg853
I12
sg141
I0
sg854
(I3
I0
tp2510
sg856
I6
sg857
I90
sg858
(lp2511
I2
asba(ibasic
Base_Unit
p2512
(dp2513
g6
I3
sg850
I15
sg851
I2
sg852
I-6
sg180
I0
sg853
I9
sg141
I0
sg854
(I4
I1
tp2514
sg856
I8
sg857
I95
sg858
(lp2515
I1
asbaa(lp2516
(ibasic
Hero
p2517
(dp2518
g6
I8
sg850
I20
sg851
I6
sg852
I20
sg180
I0
sg853
I13
sg141
I0
sg854
(I5
I1
tp2519
sg856
I7
sg857
I95
sg858
(lp2520
I1
aI2
asba(ibasic
Base_Unit
p2521
(dp2522
g6
I1
sg850
I17
sg851
I4
sg852
I21
sg180
I0
sg853
I13
sg141
I0
sg854
(I4
I0
tp2523
sg856
I7
sg857
I90
sg858
(lp2524
I1
asba(ibasic
Base_Unit
p2525
(dp2526
g6
I2
sg850
I17
sg851
I3
sg852
I-4
sg180
I0
sg853
I12
sg141
I0
sg854
(I4
I1
tp2527
sg856
I6
sg857
I90
sg858
(lp2528
I2
aI3
aI4
aI5
aI6
aI7
aI8
aI9
aI10
asbaasg976
(I01
I01
tp2529
sbaa(lp2530
(ibasic
Round_Begin_Info
p2531
(dp2532
g886
(lp2533
(I4
I0
tp2534
a(I5
I0
tp2535
a(I3
I0
tp2536
a(I6
I0
tp2537
a(I2
I0
tp2538
a(I3
I1
tp2539
a(I7
I0
tp2540
a(I6
I1
tp2541
a(I5
I2
tp2542
a(I1
I0
tp2543
a(I2
I1
tp2544
a(I3
I2
tp2545
a(I8
I0
tp2546
a(I7
I1
tp2547
a(I6
I2
tp2548
a(I0
I0
tp2549
a(I1
I1
tp2550
a(I2
I2
tp2551
a(I4
I2
tp2552
a(I3
I3
tp2553
a(I9
I0
tp2554
a(I8
I1
tp2555
a(I7
I2
tp2556
a(I5
I3
tp2557
a(I0
I1
tp2558
a(I1
I2
tp2559
a(I10
I0
tp2560
a(I9
I1
tp2561
a(I8
I2
tp2562
a(I6
I3
tp2563
a(I0
I2
tp2564
a(I2
I3
tp2565
a(I4
I3
tp2566
a(I3
I4
tp2567
asg901
(lp2568
(lp2569
(ibasic
Hero
p2570
(dp2571
g6
I7
sg850
I20
sg851
I6
sg852
I19
sg180
I0
sg853
I13
sg141
I0
sg854
(I4
I1
tp2572
sg856
I6
sg857
I100
sg858
(lp2573
I1
asba(ibasic
Base_Unit
p2574
(dp2575
g6
I2
sg850
I17
sg851
I3
sg852
I-1
sg180
I0
sg853
I12
sg141
I0
sg854
(I3
I0
tp2576
sg856
I6
sg857
I90
sg858
(lp2577
I2
asba(ibasic
Base_Unit
p2578
(dp2579
g6
I3
sg850
I15
sg851
I2
sg852
I-6
sg180
I0
sg853
I9
sg141
I0
sg854
(I4
I1
tp2580
sg856
I8
sg857
I95
sg858
(lp2581
I1
asbaa(lp2582
(ibasic
Hero
p2583
(dp2584
g6
I8
sg850
I20
sg851
I6
sg852
I20
sg180
I0
sg853
I13
sg141
I0
sg854
(I5
I1
tp2585
sg856
I7
sg857
I95
sg858
(lp2586
I1
aI2
asba(ibasic
Base_Unit
p2587
(dp2588
g6
I1
sg850
I17
sg851
I4
sg852
I21
sg180
I0
sg853
I13
sg141
I0
sg854
g2534
sg856
I7
sg857
I90
sg858
(lp2589
I1
asba(ibasic
Base_Unit
p2590
(dp2591
g6
I2
sg850
I17
sg851
I3
sg852
I-4
sg180
I0
sg853
I12
sg141
I0
sg854
(I4
I1
tp2592
sg856
I6
sg857
I90
sg858
(lp2593
I2
aI3
aI4
aI5
aI6
aI7
aI8
aI9
aI10
asbaasg927
(I1
I1
tp2594
sg929
(lp2595
(lp2596
(I4
I0
tp2597
aI0
aasba(ibasic
Command
p2598
(dp2599
g935
(I4
I0
tp2600
sg937
I1
sg938
(I0
I0
tp2601
sba(ibasic
Round_End_Info
p2602
(dp2603
g942
I00
sg8
(lp2604
I0
aI2
asg944
(lp2605
(I4
I0
tp2606
asg901
(lp2607
(lp2608
(ibasic
Hero
p2609
(dp2610
g6
I7
sg850
I20
sg851
I6
sg852
I15
sg180
I0
sg853
I13
sg141
I0
sg854
(I4
I1
tp2611
sg856
I6
sg857
I100
sg858
(lp2612
I1
asba(ibasic
Base_Unit
p2613
(dp2614
g6
I2
sg850
I17
sg851
I3
sg852
I-1
sg180
I0
sg853
I12
sg141
I0
sg854
(I3
I0
tp2615
sg856
I6
sg857
I90
sg858
(lp2616
I2
asba(ibasic
Base_Unit
p2617
(dp2618
g6
I3
sg850
I15
sg851
I2
sg852
I-6
sg180
I0
sg853
I9
sg141
I0
sg854
(I4
I1
tp2619
sg856
I8
sg857
I95
sg858
(lp2620
I1
asbaa(lp2621
(ibasic
Hero
p2622
(dp2623
g6
I8
sg850
I20
sg851
I6
sg852
I20
sg180
I0
sg853
I13
sg141
I0
sg854
(I5
I1
tp2624
sg856
I7
sg857
I95
sg858
(lp2625
I1
aI2
asba(ibasic
Base_Unit
p2626
(dp2627
g6
I1
sg850
I17
sg851
I4
sg852
I1
sg180
I0
sg853
I13
sg141
I0
sg854
(I4
I0
tp2628
sg856
I7
sg857
I90
sg858
(lp2629
I1
asba(ibasic
Base_Unit
p2630
(dp2631
g6
I2
sg850
I17
sg851
I3
sg852
I-4
sg180
I0
sg853
I12
sg141
I0
sg854
(I4
I1
tp2632
sg856
I6
sg857
I90
sg858
(lp2633
I2
aI3
aI4
aI5
aI6
aI7
aI8
aI9
aI10
asbaasg976
(I01
I01
tp2634
sbaa(lp2635
(ibasic
Round_Begin_Info
p2636
(dp2637
g886
(lp2638
(I4
I1
tp2639
a(I3
I1
tp2640
a(I4
I2
tp2641
a(I2
I1
tp2642
a(I3
I2
tp2643
a(I3
I0
tp2644
a(I1
I1
tp2645
a(I2
I2
tp2646
a(I2
I0
tp2647
a(I3
I3
tp2648
a(I5
I2
tp2649
a(I4
I3
tp2650
a(I0
I1
tp2651
a(I1
I2
tp2652
a(I1
I0
tp2653
a(I0
I2
tp2654
a(I0
I0
tp2655
a(I2
I3
tp2656
a(I3
I4
tp2657
a(I6
I2
tp2658
a(I5
I3
tp2659
a(I4
I4
tp2660
asg901
(lp2661
(lp2662
(ibasic
Hero
p2663
(dp2664
g6
I7
sg850
I20
sg851
I6
sg852
I15
sg180
I0
sg853
I13
sg141
I0
sg854
g2639
sg856
I6
sg857
I100
sg858
(lp2665
I1
asba(ibasic
Base_Unit
p2666
(dp2667
g6
I2
sg850
I17
sg851
I3
sg852
I-1
sg180
I0
sg853
I12
sg141
I0
sg854
(I3
I0
tp2668
sg856
I6
sg857
I90
sg858
(lp2669
I2
asba(ibasic
Base_Unit
p2670
(dp2671
g6
I3
sg850
I15
sg851
I2
sg852
I-6
sg180
I0
sg853
I9
sg141
I0
sg854
(I4
I1
tp2672
sg856
I8
sg857
I95
sg858
(lp2673
I1
asbaa(lp2674
(ibasic
Hero
p2675
(dp2676
g6
I8
sg850
I20
sg851
I6
sg852
I20
sg180
I0
sg853
I13
sg141
I0
sg854
(I5
I1
tp2677
sg856
I7
sg857
I95
sg858
(lp2678
I1
aI2
asba(ibasic
Base_Unit
p2679
(dp2680
g6
I1
sg850
I17
sg851
I4
sg852
I1
sg180
I0
sg853
I13
sg141
I0
sg854
(I4
I0
tp2681
sg856
I7
sg857
I90
sg858
(lp2682
I1
asba(ibasic
Base_Unit
p2683
(dp2684
g6
I2
sg850
I17
sg851
I3
sg852
I-4
sg180
I0
sg853
I12
sg141
I0
sg854
(I4
I1
tp2685
sg856
I6
sg857
I90
sg858
(lp2686
I2
aI3
aI4
aI5
aI6
aI7
aI8
aI9
aI10
asbaasg927
(I0
I0
tp2687
sg929
(lp2688
(lp2689
(I4
I0
tp2690
aI0
aasba(ibasic
Command
p2691
(dp2692
g935
(I4
I1
tp2693
sg937
I1
sg938
(I1
I1
tp2694
sba(ibasic
Round_End_Info
p2695
(dp2696
g942
I00
sg8
(lp2697
I0
aI2
asg944
(lp2698
(I4
I1
tp2699
asg901
(lp2700
(lp2701
(ibasic
Hero
p2702
(dp2703
g6
I7
sg850
I20
sg851
I6
sg852
I15
sg180
I0
sg853
I13
sg141
I0
sg854
(I4
I1
tp2704
sg856
I6
sg857
I100
sg858
(lp2705
I1
asba(ibasic
Base_Unit
p2706
(dp2707
g6
I2
sg850
I17
sg851
I3
sg852
I-1
sg180
I0
sg853
I12
sg141
I0
sg854
(I3
I0
tp2708
sg856
I6
sg857
I90
sg858
(lp2709
I2
asba(ibasic
Base_Unit
p2710
(dp2711
g6
I3
sg850
I15
sg851
I2
sg852
I-6
sg180
I0
sg853
I9
sg141
I0
sg854
(I4
I1
tp2712
sg856
I8
sg857
I95
sg858
(lp2713
I1
asbaa(lp2714
(ibasic
Hero
p2715
(dp2716
g6
I8
sg850
I20
sg851
I6
sg852
I20
sg180
I0
sg853
I13
sg141
I0
sg854
(I5
I1
tp2717
sg856
I7
sg857
I95
sg858
(lp2718
I1
aI2
asba(ibasic
Base_Unit
p2719
(dp2720
g6
I1
sg850
I17
sg851
I4
sg852
I-6
sg180
I0
sg853
I13
sg141
I0
sg854
(I4
I0
tp2721
sg856
I7
sg857
I90
sg858
(lp2722
I1
asba(ibasic
Base_Unit
p2723
(dp2724
g6
I2
sg850
I17
sg851
I3
sg852
I-4
sg180
I0
sg853
I12
sg141
I0
sg854
(I4
I1
tp2725
sg856
I6
sg857
I90
sg858
(lp2726
I2
aI3
aI4
aI5
aI6
aI7
aI8
aI9
aI10
asbaasg976
(I01
I-1
tp2727
sbaa(lp2728
(ibasic
Round_Begin_Info
p2729
(dp2730
g886
(lp2731
(I5
I1
tp2732
a(I6
I1
tp2733
a(I5
I2
tp2734
a(I5
I0
tp2735
a(I7
I1
tp2736
a(I6
I2
tp2737
a(I6
I0
tp2738
a(I4
I0
tp2739
a(I8
I1
tp2740
a(I7
I2
tp2741
a(I7
I0
tp2742
a(I4
I2
tp2743
a(I5
I3
tp2744
a(I3
I0
tp2745
a(I9
I1
tp2746
a(I8
I2
tp2747
a(I8
I0
tp2748
a(I6
I3
tp2749
a(I2
I0
tp2750
a(I3
I1
tp2751
a(I10
I1
tp2752
a(I9
I2
tp2753
a(I9
I0
tp2754
a(I7
I3
tp2755
a(I3
I2
tp2756
a(I4
I3
tp2757
a(I5
I4
tp2758
a(I1
I0
tp2759
a(I2
I1
tp2760
a(I11
I1
tp2761
a(I10
I2
tp2762
a(I10
I0
tp2763
a(I8
I3
tp2764
a(I6
I4
tp2765
a(I2
I2
tp2766
a(I3
I3
tp2767
a(I0
I0
tp2768
a(I1
I1
tp2769
asg901
(lp2770
(lp2771
(ibasic
Hero
p2772
(dp2773
g6
I7
sg850
I20
sg851
I6
sg852
I15
sg180
I0
sg853
I13
sg141
I0
sg854
(I4
I1
tp2774
sg856
I6
sg857
I100
sg858
(lp2775
I1
asba(ibasic
Base_Unit
p2776
(dp2777
g6
I2
sg850
I17
sg851
I3
sg852
I-1
sg180
I0
sg853
I12
sg141
I0
sg854
(I3
I0
tp2778
sg856
I6
sg857
I90
sg858
(lp2779
I2
asba(ibasic
Base_Unit
p2780
(dp2781
g6
I3
sg850
I15
sg851
I2
sg852
I-6
sg180
I0
sg853
I9
sg141
I0
sg854
(I4
I1
tp2782
sg856
I8
sg857
I95
sg858
(lp2783
I1
asbaa(lp2784
(ibasic
Hero
p2785
(dp2786
g6
I8
sg850
I20
sg851
I6
sg852
I20
sg180
I0
sg853
I13
sg141
I0
sg854
g2732
sg856
I7
sg857
I95
sg858
(lp2787
I1
aI2
asba(ibasic
Base_Unit
p2788
(dp2789
g6
I1
sg850
I17
sg851
I4
sg852
I-6
sg180
I0
sg853
I13
sg141
I0
sg854
(I4
I0
tp2790
sg856
I7
sg857
I90
sg858
(lp2791
I1
asba(ibasic
Base_Unit
p2792
(dp2793
g6
I2
sg850
I17
sg851
I3
sg852
I-4
sg180
I0
sg853
I12
sg141
I0
sg854
(I4
I1
tp2794
sg856
I6
sg857
I90
sg858
(lp2795
I2
aI3
aI4
aI5
aI6
aI7
aI8
aI9
aI10
asbaasg927
(I1
I0
tp2796
sg929
(lp2797
(lp2798
(I4
I0
tp2799
aI0
aasba(ibasic
Command
p2800
(dp2801
g935
(I10
I1
tp2802
sg937
I2
sg938
(I1
I0
tp2803
sba(ibasic
Round_End_Info
p2804
(dp2805
g942
I00
sg8
(lp2806
I0
aI2
asg944
(lp2807
(I5
I1
tp2808
a(I6
I1
tp2809
a(I7
I1
tp2810
a(I8
I1
tp2811
a(I9
I1
tp2812
a(I10
I1
tp2813
asg901
(lp2814
(lp2815
(ibasic
Hero
p2816
(dp2817
g6
I7
sg850
I20
sg851
I6
sg852
I15
sg180
I0
sg853
I13
sg141
I0
sg854
(I4
I1
tp2818
sg856
I6
sg857
I100
sg858
(lp2819
I1
asba(ibasic
Base_Unit
p2820
(dp2821
g6
I2
sg850
I17
sg851
I3
sg852
I-1
sg180
I0
sg853
I12
sg141
I0
sg854
(I3
I0
tp2822
sg856
I6
sg857
I90
sg858
(lp2823
I2
asba(ibasic
Base_Unit
p2824
(dp2825
g6
I3
sg850
I15
sg851
I2
sg852
I-6
sg180
I0
sg853
I9
sg141
I0
sg854
(I4
I1
tp2826
sg856
I8
sg857
I95
sg858
(lp2827
I1
asbaa(lp2828
(ibasic
Hero
p2829
(dp2830
g6
I8
sg850
I20
sg851
I6
sg852
I20
sg180
I0
sg853
I13
sg141
I0
sg854
g2813
sg856
I7
sg857
I95
sg858
(lp2831
I1
aI2
asba(ibasic
Base_Unit
p2832
(dp2833
g6
I1
sg850
I17
sg851
I4
sg852
I-6
sg180
I0
sg853
I13
sg141
I0
sg854
(I4
I0
tp2834
sg856
I7
sg857
I90
sg858
(lp2835
I1
asba(ibasic
Base_Unit
p2836
(dp2837
g6
I2
sg850
I17
sg851
I3
sg852
I-4
sg180
I0
sg853
I12
sg141
I0
sg854
(I4
I1
tp2838
sg856
I6
sg857
I90
sg858
(lp2839
I2
aI3
aI4
aI5
aI6
aI7
aI8
aI9
aI10
asbaasg976
(I-1
I-1
tp2840
sbaa(lp2841
(ibasic
Round_Begin_Info
p2842
(dp2843
g886
(lp2844
(I4
I1
tp2845
a(I5
I1
tp2846
a(I3
I1
tp2847
a(I4
I2
tp2848
a(I4
I0
tp2849
a(I6
I1
tp2850
a(I5
I2
tp2851
a(I5
I0
tp2852
a(I2
I1
tp2853
a(I3
I2
tp2854
a(I3
I0
tp2855
a(I7
I1
tp2856
a(I6
I2
tp2857
a(I6
I0
tp2858
a(I1
I1
tp2859
a(I2
I2
tp2860
a(I2
I0
tp2861
a(I3
I3
tp2862
a(I4
I3
tp2863
a(I8
I1
tp2864
a(I7
I2
tp2865
a(I7
I0
tp2866
a(I5
I3
tp2867
a(I0
I1
tp2868
a(I1
I2
tp2869
a(I1
I0
tp2870
a(I9
I1
tp2871
a(I8
I2
tp2872
a(I8
I0
tp2873
a(I6
I3
tp2874
a(I0
I2
tp2875
a(I0
I0
tp2876
a(I2
I3
tp2877
a(I3
I4
tp2878
a(I4
I4
tp2879
asg901
(lp2880
(lp2881
(ibasic
Hero
p2882
(dp2883
g6
I7
sg850
I20
sg851
I6
sg852
I15
sg180
I0
sg853
I13
sg141
I0
sg854
g2845
sg856
I6
sg857
I100
sg858
(lp2884
I1
asba(ibasic
Base_Unit
p2885
(dp2886
g6
I2
sg850
I17
sg851
I3
sg852
I-1
sg180
I0
sg853
I12
sg141
I0
sg854
(I3
I0
tp2887
sg856
I6
sg857
I90
sg858
(lp2888
I2
asba(ibasic
Base_Unit
p2889
(dp2890
g6
I3
sg850
I15
sg851
I2
sg852
I-6
sg180
I0
sg853
I9
sg141
I0
sg854
(I4
I1
tp2891
sg856
I8
sg857
I95
sg858
(lp2892
I1
asbaa(lp2893
(ibasic
Hero
p2894
(dp2895
g6
I8
sg850
I20
sg851
I6
sg852
I20
sg180
I0
sg853
I13
sg141
I0
sg854
(I10
I1
tp2896
sg856
I7
sg857
I95
sg858
(lp2897
I1
aI2
asba(ibasic
Base_Unit
p2898
(dp2899
g6
I1
sg850
I17
sg851
I4
sg852
I-6
sg180
I0
sg853
I13
sg141
I0
sg854
(I4
I0
tp2900
sg856
I7
sg857
I90
sg858
(lp2901
I1
asba(ibasic
Base_Unit
p2902
(dp2903
g6
I2
sg850
I17
sg851
I3
sg852
I-4
sg180
I0
sg853
I12
sg141
I0
sg854
(I4
I1
tp2904
sg856
I6
sg857
I90
sg858
(lp2905
I2
aI3
aI4
aI5
aI6
aI7
aI8
aI9
aI10
asbaasg927
(I0
I0
tp2906
sg929
(lp2907
(lp2908
(I4
I0
tp2909
aI0
aasba(ibasic
Command
p2910
(dp2911
g935
(I9
I1
tp2912
sg937
I1
sg938
(I1
I0
tp2913
sba(ibasic
Round_End_Info
p2914
(dp2915
g942
I00
sg8
(lp2916
I0
aI2
asg944
(lp2917
(I4
I1
tp2918
a(I5
I1
tp2919
a(I6
I1
tp2920
a(I7
I1
tp2921
a(I8
I1
tp2922
a(I9
I1
tp2923
asg901
(lp2924
(lp2925
(ibasic
Hero
p2926
(dp2927
g6
I7
sg850
I20
sg851
I6
sg852
I8
sg180
I0
sg853
I13
sg141
I0
sg854
g2923
sg856
I6
sg857
I100
sg858
(lp2928
I1
asba(ibasic
Base_Unit
p2929
(dp2930
g6
I2
sg850
I17
sg851
I3
sg852
I-1
sg180
I0
sg853
I12
sg141
I0
sg854
(I3
I0
tp2931
sg856
I6
sg857
I90
sg858
(lp2932
I2
asba(ibasic
Base_Unit
p2933
(dp2934
g6
I3
sg850
I15
sg851
I2
sg852
I-6
sg180
I0
sg853
I9
sg141
I0
sg854
(I4
I1
tp2935
sg856
I8
sg857
I95
sg858
(lp2936
I1
asbaa(lp2937
(ibasic
Hero
p2938
(dp2939
g6
I8
sg850
I20
sg851
I6
sg852
I13
sg180
I0
sg853
I13
sg141
I0
sg854
(I10
I1
tp2940
sg856
I7
sg857
I95
sg858
(lp2941
I1
aI2
asba(ibasic
Base_Unit
p2942
(dp2943
g6
I1
sg850
I17
sg851
I4
sg852
I-6
sg180
I0
sg853
I13
sg141
I0
sg854
(I4
I0
tp2944
sg856
I7
sg857
I90
sg858
(lp2945
I1
asba(ibasic
Base_Unit
p2946
(dp2947
g6
I2
sg850
I17
sg851
I3
sg852
I-4
sg180
I0
sg853
I12
sg141
I0
sg854
(I4
I1
tp2948
sg856
I6
sg857
I90
sg858
(lp2949
I2
aI3
aI4
aI5
aI6
aI7
aI8
aI9
aI10
asbaasg976
(I01
I01
tp2950
sbaa(lp2951
(ibasic
Round_Begin_Info
p2952
(dp2953
g886
(lp2954
(I10
I1
tp2955
a(I11
I1
tp2956
a(I10
I2
tp2957
a(I10
I0
tp2958
a(I12
I1
tp2959
a(I11
I2
tp2960
a(I11
I0
tp2961
a(I9
I0
tp2962
a(I13
I1
tp2963
a(I12
I2
tp2964
a(I12
I0
tp2965
a(I9
I2
tp2966
a(I10
I3
tp2967
a(I8
I0
tp2968
a(I14
I1
tp2969
a(I13
I2
tp2970
a(I13
I0
tp2971
a(I11
I3
tp2972
a(I7
I0
tp2973
a(I8
I1
tp2974
a(I15
I1
tp2975
a(I14
I2
tp2976
a(I14
I0
tp2977
a(I12
I3
tp2978
a(I8
I2
tp2979
a(I9
I3
tp2980
a(I10
I4
tp2981
a(I6
I0
tp2982
a(I7
I1
tp2983
a(I16
I1
tp2984
a(I15
I2
tp2985
a(I15
I0
tp2986
a(I13
I3
tp2987
a(I11
I4
tp2988
a(I5
I0
tp2989
a(I6
I1
tp2990
a(I7
I2
tp2991
asg901
(lp2992
(lp2993
(ibasic
Hero
p2994
(dp2995
g6
I7
sg850
I20
sg851
I6
sg852
I8
sg180
I0
sg853
I13
sg141
I0
sg854
(I9
I1
tp2996
sg856
I6
sg857
I100
sg858
(lp2997
I1
asba(ibasic
Base_Unit
p2998
(dp2999
g6
I2
sg850
I17
sg851
I3
sg852
I-1
sg180
I0
sg853
I12
sg141
I0
sg854
(I3
I0
tp3000
sg856
I6
sg857
I90
sg858
(lp3001
I2
asba(ibasic
Base_Unit
p3002
(dp3003
g6
I3
sg850
I15
sg851
I2
sg852
I-6
sg180
I0
sg853
I9
sg141
I0
sg854
(I4
I1
tp3004
sg856
I8
sg857
I95
sg858
(lp3005
I1
asbaa(lp3006
(ibasic
Hero
p3007
(dp3008
g6
I8
sg850
I20
sg851
I6
sg852
I13
sg180
I0
sg853
I13
sg141
I0
sg854
g2955
sg856
I7
sg857
I95
sg858
(lp3009
I1
aI2
asba(ibasic
Base_Unit
p3010
(dp3011
g6
I1
sg850
I17
sg851
I4
sg852
I-6
sg180
I0
sg853
I13
sg141
I0
sg854
(I4
I0
tp3012
sg856
I7
sg857
I90
sg858
(lp3013
I1
asba(ibasic
Base_Unit
p3014
(dp3015
g6
I2
sg850
I17
sg851
I3
sg852
I-4
sg180
I0
sg853
I12
sg141
I0
sg854
(I4
I1
tp3016
sg856
I6
sg857
I90
sg858
(lp3017
I2
aI3
aI4
aI5
aI6
aI7
aI8
aI9
aI10
asbaasg927
(I1
I0
tp3018
sg929
(lp3019
(lp3020
(I4
I0
tp3021
aI0
aasba(ibasic
Command
p3022
(dp3023
g935
(I10
I1
tp3024
sg937
I1
sg938
(I0
I0
tp3025
sba(ibasic
Round_End_Info
p3026
(dp3027
g942
I01
sg8
(lp3028
I0
aI2
asg944
(lp3029
(I10
I1
tp3030
asg901
(lp3031
(lp3032
(ibasic
Hero
p3033
(dp3034
g6
I7
sg850
I20
sg851
I6
sg852
I1
sg180
I0
sg853
I13
sg141
I0
sg854
(I9
I1
tp3035
sg856
I6
sg857
I100
sg858
(lp3036
I1
asba(ibasic
Base_Unit
p3037
(dp3038
g6
I2
sg850
I17
sg851
I3
sg852
I-1
sg180
I0
sg853
I12
sg141
I0
sg854
(I3
I0
tp3039
sg856
I6
sg857
I90
sg858
(lp3040
I2
asba(ibasic
Base_Unit
p3041
(dp3042
g6
I3
sg850
I15
sg851
I2
sg852
I-6
sg180
I0
sg853
I9
sg141
I0
sg854
(I4
I1
tp3043
sg856
I8
sg857
I95
sg858
(lp3044
I1
asbaa(lp3045
(ibasic
Hero
p3046
(dp3047
g6
I8
sg850
I20
sg851
I6
sg852
I-7
sg180
I0
sg853
I13
sg141
I0
sg854
(I10
I1
tp3048
sg856
I7
sg857
I95
sg858
(lp3049
I1
aI2
asba(ibasic
Base_Unit
p3050
(dp3051
g6
I1
sg850
I17
sg851
I4
sg852
I-6
sg180
I0
sg853
I13
sg141
I0
sg854
(I4
I0
tp3052
sg856
I7
sg857
I90
sg858
(lp3053
I1
asba(ibasic
Base_Unit
p3054
(dp3055
g6
I2
sg850
I17
sg851
I3
sg852
I-4
sg180
I0
sg853
I12
sg141
I0
sg854
(I4
I1
tp3056
sg856
I6
sg857
I90
sg858
(lp3057
I2
aI3
aI4
aI5
aI6
aI7
aI8
aI9
aI10
asbaasg976
(I01
I01
tp3058
sbaa.